
rv64ud-p-fdiv:     file format elf64-littleriscv


Disassembly of section .text.init:

0000000080000000 <_start>:
    80000000:	04c0006f          	jal	x0,8000004c <reset_vector>

0000000080000004 <trap_vector>:
    80000004:	34202f73          	csrrs	x30,mcause,x0
    80000008:	00800f93          	addi	x31,x0,8
    8000000c:	03ff0a63          	beq	x30,x31,80000040 <write_tohost>
    80000010:	00900f93          	addi	x31,x0,9
    80000014:	03ff0663          	beq	x30,x31,80000040 <write_tohost>
    80000018:	00b00f93          	addi	x31,x0,11
    8000001c:	03ff0263          	beq	x30,x31,80000040 <write_tohost>
    80000020:	80000f17          	auipc	x30,0x80000
    80000024:	fe0f0f13          	addi	x30,x30,-32 # 0 <_start-0x80000000>
    80000028:	000f0463          	beq	x30,x0,80000030 <trap_vector+0x2c>
    8000002c:	000f0067          	jalr	x0,0(x30)
    80000030:	34202f73          	csrrs	x30,mcause,x0
    80000034:	000f5463          	bge	x30,x0,8000003c <handle_exception>
    80000038:	0040006f          	jal	x0,8000003c <handle_exception>

000000008000003c <handle_exception>:
    8000003c:	5391e193          	ori	x3,x3,1337

0000000080000040 <write_tohost>:
    80000040:	00001f17          	auipc	x30,0x1
    80000044:	fc3f2023          	sw	x3,-64(x30) # 80001000 <tohost>
    80000048:	ff9ff06f          	jal	x0,80000040 <write_tohost>

000000008000004c <reset_vector>:
    8000004c:	f1402573          	csrrs	x10,mhartid,x0
    80000050:	00051063          	bne	x10,x0,80000050 <reset_vector+0x4>
    80000054:	00000297          	auipc	x5,0x0
    80000058:	01028293          	addi	x5,x5,16 # 80000064 <reset_vector+0x18>
    8000005c:	30529073          	csrrw	x0,mtvec,x5
    80000060:	18005073          	csrrwi	x0,sptbr,0
    80000064:	00000297          	auipc	x5,0x0
    80000068:	01c28293          	addi	x5,x5,28 # 80000080 <reset_vector+0x34>
    8000006c:	30529073          	csrrw	x0,mtvec,x5
    80000070:	fff00293          	addi	x5,x0,-1
    80000074:	3b029073          	csrrw	x0,pmpaddr0,x5
    80000078:	01f00293          	addi	x5,x0,31
    8000007c:	3a029073          	csrrw	x0,pmpcfg0,x5
    80000080:	00000297          	auipc	x5,0x0
    80000084:	01828293          	addi	x5,x5,24 # 80000098 <reset_vector+0x4c>
    80000088:	30529073          	csrrw	x0,mtvec,x5
    8000008c:	30205073          	csrrwi	x0,medeleg,0
    80000090:	30305073          	csrrwi	x0,mideleg,0
    80000094:	30405073          	csrrwi	x0,mie,0
    80000098:	00000193          	addi	x3,x0,0
    8000009c:	00000297          	auipc	x5,0x0
    800000a0:	f6828293          	addi	x5,x5,-152 # 80000004 <trap_vector>
    800000a4:	30529073          	csrrw	x0,mtvec,x5
    800000a8:	00100513          	addi	x10,x0,1
    800000ac:	01f51513          	slli	x10,x10,0x1f
    800000b0:	00055863          	bge	x10,x0,800000c0 <reset_vector+0x74>
    800000b4:	0ff0000f          	fence	iorw,iorw
    800000b8:	00100193          	addi	x3,x0,1
    800000bc:	00000073          	ecall
    800000c0:	80000297          	auipc	x5,0x80000
    800000c4:	f4028293          	addi	x5,x5,-192 # 0 <_start-0x80000000>
    800000c8:	00028e63          	beq	x5,x0,800000e4 <reset_vector+0x98>
    800000cc:	10529073          	csrrw	x0,stvec,x5
    800000d0:	0000b2b7          	lui	x5,0xb
    800000d4:	1092829b          	addiw	x5,x5,265
    800000d8:	30229073          	csrrw	x0,medeleg,x5
    800000dc:	30202373          	csrrs	x6,medeleg,x0
    800000e0:	f4629ee3          	bne	x5,x6,8000003c <handle_exception>
    800000e4:	30005073          	csrrwi	x0,mstatus,0
    800000e8:	00002537          	lui	x10,0x2
    800000ec:	30052073          	csrrs	x0,mstatus,x10
    800000f0:	00305073          	csrrwi	x0,fcsr,0
    800000f4:	00000297          	auipc	x5,0x0
    800000f8:	01428293          	addi	x5,x5,20 # 80000108 <test_2>
    800000fc:	34129073          	csrrw	x0,mepc,x5
    80000100:	f1402573          	csrrs	x10,mhartid,x0
    80000104:	30200073          	mret

0000000080000108 <test_2>:
    80000108:	00200193          	addi	x3,x0,2
    8000010c:	00002517          	auipc	x10,0x2
    80000110:	ef450513          	addi	x10,x10,-268 # 80002000 <test_2_data>
    80000114:	00053007          	fld	f0,0(x10)
    80000118:	00853087          	fld	f1,8(x10)
    8000011c:	01053107          	fld	f2,16(x10)
    80000120:	01853683          	ld	x13,24(x10)
    80000124:	1a1071d3          	fdiv.d	f3,f0,f1
    80000128:	e2018553          	fmv.x.d	x10,f3
    8000012c:	001015f3          	fsflags	x11,x0
    80000130:	00100613          	addi	x12,x0,1
    80000134:	16d51c63          	bne	x10,x13,800002ac <fail>
    80000138:	16c59a63          	bne	x11,x12,800002ac <fail>

000000008000013c <test_3>:
    8000013c:	00300193          	addi	x3,x0,3
    80000140:	00002517          	auipc	x10,0x2
    80000144:	ee050513          	addi	x10,x10,-288 # 80002020 <test_3_data>
    80000148:	00053007          	fld	f0,0(x10)
    8000014c:	00853087          	fld	f1,8(x10)
    80000150:	01053107          	fld	f2,16(x10)
    80000154:	01853683          	ld	x13,24(x10)
    80000158:	1a1071d3          	fdiv.d	f3,f0,f1
    8000015c:	e2018553          	fmv.x.d	x10,f3
    80000160:	001015f3          	fsflags	x11,x0
    80000164:	00100613          	addi	x12,x0,1
    80000168:	14d51263          	bne	x10,x13,800002ac <fail>
    8000016c:	14c59063          	bne	x11,x12,800002ac <fail>

0000000080000170 <test_4>:
    80000170:	00400193          	addi	x3,x0,4
    80000174:	00002517          	auipc	x10,0x2
    80000178:	ecc50513          	addi	x10,x10,-308 # 80002040 <test_4_data>
    8000017c:	00053007          	fld	f0,0(x10)
    80000180:	00853087          	fld	f1,8(x10)
    80000184:	01053107          	fld	f2,16(x10)
    80000188:	01853683          	ld	x13,24(x10)
    8000018c:	1a1071d3          	fdiv.d	f3,f0,f1
    80000190:	e2018553          	fmv.x.d	x10,f3
    80000194:	001015f3          	fsflags	x11,x0
    80000198:	00000613          	addi	x12,x0,0
    8000019c:	10d51863          	bne	x10,x13,800002ac <fail>
    800001a0:	10c59663          	bne	x11,x12,800002ac <fail>

00000000800001a4 <test_5>:
    800001a4:	00500193          	addi	x3,x0,5
    800001a8:	00002517          	auipc	x10,0x2
    800001ac:	eb850513          	addi	x10,x10,-328 # 80002060 <test_5_data>
    800001b0:	00053007          	fld	f0,0(x10)
    800001b4:	00853087          	fld	f1,8(x10)
    800001b8:	01053107          	fld	f2,16(x10)
    800001bc:	01853683          	ld	x13,24(x10)
    800001c0:	5a0071d3          	fsqrt.d	f3,f0
    800001c4:	e2018553          	fmv.x.d	x10,f3
    800001c8:	001015f3          	fsflags	x11,x0
    800001cc:	00100613          	addi	x12,x0,1
    800001d0:	0cd51e63          	bne	x10,x13,800002ac <fail>
    800001d4:	0cc59c63          	bne	x11,x12,800002ac <fail>

00000000800001d8 <test_6>:
    800001d8:	00600193          	addi	x3,x0,6
    800001dc:	00002517          	auipc	x10,0x2
    800001e0:	ea450513          	addi	x10,x10,-348 # 80002080 <test_6_data>
    800001e4:	00053007          	fld	f0,0(x10)
    800001e8:	00853087          	fld	f1,8(x10)
    800001ec:	01053107          	fld	f2,16(x10)
    800001f0:	01853683          	ld	x13,24(x10)
    800001f4:	5a0071d3          	fsqrt.d	f3,f0
    800001f8:	e2018553          	fmv.x.d	x10,f3
    800001fc:	001015f3          	fsflags	x11,x0
    80000200:	00000613          	addi	x12,x0,0
    80000204:	0ad51463          	bne	x10,x13,800002ac <fail>
    80000208:	0ac59263          	bne	x11,x12,800002ac <fail>

000000008000020c <test_16>:
    8000020c:	01000193          	addi	x3,x0,16
    80000210:	00002517          	auipc	x10,0x2
    80000214:	e9050513          	addi	x10,x10,-368 # 800020a0 <test_16_data>
    80000218:	00053007          	fld	f0,0(x10)
    8000021c:	00853087          	fld	f1,8(x10)
    80000220:	01053107          	fld	f2,16(x10)
    80000224:	01853683          	ld	x13,24(x10)
    80000228:	5a0071d3          	fsqrt.d	f3,f0
    8000022c:	e2018553          	fmv.x.d	x10,f3
    80000230:	001015f3          	fsflags	x11,x0
    80000234:	01000613          	addi	x12,x0,16
    80000238:	06d51a63          	bne	x10,x13,800002ac <fail>
    8000023c:	06c59863          	bne	x11,x12,800002ac <fail>

0000000080000240 <test_7>:
    80000240:	00700193          	addi	x3,x0,7
    80000244:	00002517          	auipc	x10,0x2
    80000248:	e7c50513          	addi	x10,x10,-388 # 800020c0 <test_7_data>
    8000024c:	00053007          	fld	f0,0(x10)
    80000250:	00853087          	fld	f1,8(x10)
    80000254:	01053107          	fld	f2,16(x10)
    80000258:	01853683          	ld	x13,24(x10)
    8000025c:	5a0071d3          	fsqrt.d	f3,f0
    80000260:	e2018553          	fmv.x.d	x10,f3
    80000264:	001015f3          	fsflags	x11,x0
    80000268:	00100613          	addi	x12,x0,1
    8000026c:	04d51063          	bne	x10,x13,800002ac <fail>
    80000270:	02c59e63          	bne	x11,x12,800002ac <fail>

0000000080000274 <test_8>:
    80000274:	00800193          	addi	x3,x0,8
    80000278:	00002517          	auipc	x10,0x2
    8000027c:	e6850513          	addi	x10,x10,-408 # 800020e0 <test_8_data>
    80000280:	00053007          	fld	f0,0(x10)
    80000284:	00853087          	fld	f1,8(x10)
    80000288:	01053107          	fld	f2,16(x10)
    8000028c:	01853683          	ld	x13,24(x10)
    80000290:	5a0071d3          	fsqrt.d	f3,f0
    80000294:	e2018553          	fmv.x.d	x10,f3
    80000298:	001015f3          	fsflags	x11,x0
    8000029c:	00100613          	addi	x12,x0,1
    800002a0:	00d51663          	bne	x10,x13,800002ac <fail>
    800002a4:	00c59463          	bne	x11,x12,800002ac <fail>
    800002a8:	00301c63          	bne	x0,x3,800002c0 <pass>

00000000800002ac <fail>:
    800002ac:	0ff0000f          	fence	iorw,iorw
    800002b0:	00018063          	beq	x3,x0,800002b0 <fail+0x4>
    800002b4:	00119193          	slli	x3,x3,0x1
    800002b8:	0011e193          	ori	x3,x3,1
    800002bc:	00000073          	ecall

00000000800002c0 <pass>:
    800002c0:	0ff0000f          	fence	iorw,iorw
    800002c4:	00100193          	addi	x3,x0,1
    800002c8:	00000073          	ecall
    800002cc:	c0001073          	unimp
	...
