
rv64ui-p-sll:     file format elf64-littleriscv


Disassembly of section .text.init:

0000000080000000 <_start>:
    80000000:	04c0006f          	jal	x0,8000004c <reset_vector>

0000000080000004 <trap_vector>:
    80000004:	34202f73          	csrrs	x30,mcause,x0
    80000008:	00800f93          	addi	x31,x0,8
    8000000c:	03ff0a63          	beq	x30,x31,80000040 <write_tohost>
    80000010:	00900f93          	addi	x31,x0,9
    80000014:	03ff0663          	beq	x30,x31,80000040 <write_tohost>
    80000018:	00b00f93          	addi	x31,x0,11
    8000001c:	03ff0263          	beq	x30,x31,80000040 <write_tohost>
    80000020:	80000f17          	auipc	x30,0x80000
    80000024:	fe0f0f13          	addi	x30,x30,-32 # 0 <_start-0x80000000>
    80000028:	000f0463          	beq	x30,x0,80000030 <trap_vector+0x2c>
    8000002c:	000f0067          	jalr	x0,0(x30)
    80000030:	34202f73          	csrrs	x30,mcause,x0
    80000034:	000f5463          	bge	x30,x0,8000003c <handle_exception>
    80000038:	0040006f          	jal	x0,8000003c <handle_exception>

000000008000003c <handle_exception>:
    8000003c:	5391e193          	ori	x3,x3,1337

0000000080000040 <write_tohost>:
    80000040:	00001f17          	auipc	x30,0x1
    80000044:	fc3f2023          	sw	x3,-64(x30) # 80001000 <tohost>
    80000048:	ff9ff06f          	jal	x0,80000040 <write_tohost>

000000008000004c <reset_vector>:
    8000004c:	f1402573          	csrrs	x10,mhartid,x0
    80000050:	00051063          	bne	x10,x0,80000050 <reset_vector+0x4>
    80000054:	00000297          	auipc	x5,0x0
    80000058:	01028293          	addi	x5,x5,16 # 80000064 <reset_vector+0x18>
    8000005c:	30529073          	csrrw	x0,mtvec,x5
    80000060:	18005073          	csrrwi	x0,satp,0
    80000064:	00000297          	auipc	x5,0x0
    80000068:	01c28293          	addi	x5,x5,28 # 80000080 <reset_vector+0x34>
    8000006c:	30529073          	csrrw	x0,mtvec,x5
    80000070:	fff00293          	addi	x5,x0,-1
    80000074:	3b029073          	csrrw	x0,pmpaddr0,x5
    80000078:	01f00293          	addi	x5,x0,31
    8000007c:	3a029073          	csrrw	x0,pmpcfg0,x5
    80000080:	00000297          	auipc	x5,0x0
    80000084:	01828293          	addi	x5,x5,24 # 80000098 <reset_vector+0x4c>
    80000088:	30529073          	csrrw	x0,mtvec,x5
    8000008c:	30205073          	csrrwi	x0,medeleg,0
    80000090:	30305073          	csrrwi	x0,mideleg,0
    80000094:	30405073          	csrrwi	x0,mie,0
    80000098:	00000193          	addi	x3,x0,0
    8000009c:	00000297          	auipc	x5,0x0
    800000a0:	f6828293          	addi	x5,x5,-152 # 80000004 <trap_vector>
    800000a4:	30529073          	csrrw	x0,mtvec,x5
    800000a8:	00100513          	addi	x10,x0,1
    800000ac:	01f51513          	slli	x10,x10,0x1f
    800000b0:	00055863          	bge	x10,x0,800000c0 <reset_vector+0x74>
    800000b4:	0ff0000f          	fence	iorw,iorw
    800000b8:	00100193          	addi	x3,x0,1
    800000bc:	00000073          	ecall
    800000c0:	80000297          	auipc	x5,0x80000
    800000c4:	f4028293          	addi	x5,x5,-192 # 0 <_start-0x80000000>
    800000c8:	00028e63          	beq	x5,x0,800000e4 <reset_vector+0x98>
    800000cc:	10529073          	csrrw	x0,stvec,x5
    800000d0:	0000b2b7          	lui	x5,0xb
    800000d4:	1092829b          	addiw	x5,x5,265
    800000d8:	30229073          	csrrw	x0,medeleg,x5
    800000dc:	30202373          	csrrs	x6,medeleg,x0
    800000e0:	f4629ee3          	bne	x5,x6,8000003c <handle_exception>
    800000e4:	30005073          	csrrwi	x0,mstatus,0
    800000e8:	00000297          	auipc	x5,0x0
    800000ec:	01428293          	addi	x5,x5,20 # 800000fc <test_2>
    800000f0:	34129073          	csrrw	x0,mepc,x5
    800000f4:	f1402573          	csrrs	x10,mhartid,x0
    800000f8:	30200073          	mret

00000000800000fc <test_2>:
    800000fc:	00100093          	addi	x1,x0,1
    80000100:	00000113          	addi	x2,x0,0
    80000104:	00209f33          	sll	x30,x1,x2
    80000108:	00100e93          	addi	x29,x0,1
    8000010c:	00200193          	addi	x3,x0,2
    80000110:	5fdf1c63          	bne	x30,x29,80000708 <fail>

0000000080000114 <test_3>:
    80000114:	00100093          	addi	x1,x0,1
    80000118:	00100113          	addi	x2,x0,1
    8000011c:	00209f33          	sll	x30,x1,x2
    80000120:	00200e93          	addi	x29,x0,2
    80000124:	00300193          	addi	x3,x0,3
    80000128:	5fdf1063          	bne	x30,x29,80000708 <fail>

000000008000012c <test_4>:
    8000012c:	00100093          	addi	x1,x0,1
    80000130:	00700113          	addi	x2,x0,7
    80000134:	00209f33          	sll	x30,x1,x2
    80000138:	08000e93          	addi	x29,x0,128
    8000013c:	00400193          	addi	x3,x0,4
    80000140:	5ddf1463          	bne	x30,x29,80000708 <fail>

0000000080000144 <test_5>:
    80000144:	00100093          	addi	x1,x0,1
    80000148:	00e00113          	addi	x2,x0,14
    8000014c:	00209f33          	sll	x30,x1,x2
    80000150:	00004eb7          	lui	x29,0x4
    80000154:	00500193          	addi	x3,x0,5
    80000158:	5bdf1863          	bne	x30,x29,80000708 <fail>

000000008000015c <test_6>:
    8000015c:	00100093          	addi	x1,x0,1
    80000160:	01f00113          	addi	x2,x0,31
    80000164:	00209f33          	sll	x30,x1,x2
    80000168:	00100e9b          	addiw	x29,x0,1
    8000016c:	01fe9e93          	slli	x29,x29,0x1f
    80000170:	00600193          	addi	x3,x0,6
    80000174:	59df1a63          	bne	x30,x29,80000708 <fail>

0000000080000178 <test_7>:
    80000178:	fff00093          	addi	x1,x0,-1
    8000017c:	00000113          	addi	x2,x0,0
    80000180:	00209f33          	sll	x30,x1,x2
    80000184:	fff00e93          	addi	x29,x0,-1
    80000188:	00700193          	addi	x3,x0,7
    8000018c:	57df1e63          	bne	x30,x29,80000708 <fail>

0000000080000190 <test_8>:
    80000190:	fff00093          	addi	x1,x0,-1
    80000194:	00100113          	addi	x2,x0,1
    80000198:	00209f33          	sll	x30,x1,x2
    8000019c:	ffe00e93          	addi	x29,x0,-2
    800001a0:	00800193          	addi	x3,x0,8
    800001a4:	57df1263          	bne	x30,x29,80000708 <fail>

00000000800001a8 <test_9>:
    800001a8:	fff00093          	addi	x1,x0,-1
    800001ac:	00700113          	addi	x2,x0,7
    800001b0:	00209f33          	sll	x30,x1,x2
    800001b4:	f8000e93          	addi	x29,x0,-128
    800001b8:	00900193          	addi	x3,x0,9
    800001bc:	55df1663          	bne	x30,x29,80000708 <fail>

00000000800001c0 <test_10>:
    800001c0:	fff00093          	addi	x1,x0,-1
    800001c4:	00e00113          	addi	x2,x0,14
    800001c8:	00209f33          	sll	x30,x1,x2
    800001cc:	ffffceb7          	lui	x29,0xffffc
    800001d0:	00a00193          	addi	x3,x0,10
    800001d4:	53df1a63          	bne	x30,x29,80000708 <fail>

00000000800001d8 <test_11>:
    800001d8:	fff00093          	addi	x1,x0,-1
    800001dc:	01f00113          	addi	x2,x0,31
    800001e0:	00209f33          	sll	x30,x1,x2
    800001e4:	80000eb7          	lui	x29,0x80000
    800001e8:	00b00193          	addi	x3,x0,11
    800001ec:	51df1e63          	bne	x30,x29,80000708 <fail>

00000000800001f0 <test_12>:
    800001f0:	212120b7          	lui	x1,0x21212
    800001f4:	1210809b          	addiw	x1,x1,289
    800001f8:	00000113          	addi	x2,x0,0
    800001fc:	00209f33          	sll	x30,x1,x2
    80000200:	21212eb7          	lui	x29,0x21212
    80000204:	121e8e9b          	addiw	x29,x29,289
    80000208:	00c00193          	addi	x3,x0,12
    8000020c:	4fdf1e63          	bne	x30,x29,80000708 <fail>

0000000080000210 <test_13>:
    80000210:	212120b7          	lui	x1,0x21212
    80000214:	1210809b          	addiw	x1,x1,289
    80000218:	00100113          	addi	x2,x0,1
    8000021c:	00209f33          	sll	x30,x1,x2
    80000220:	42424eb7          	lui	x29,0x42424
    80000224:	242e8e9b          	addiw	x29,x29,578
    80000228:	00d00193          	addi	x3,x0,13
    8000022c:	4ddf1e63          	bne	x30,x29,80000708 <fail>

0000000080000230 <test_14>:
    80000230:	212120b7          	lui	x1,0x21212
    80000234:	1210809b          	addiw	x1,x1,289
    80000238:	00700113          	addi	x2,x0,7
    8000023c:	00209f33          	sll	x30,x1,x2
    80000240:	01091eb7          	lui	x29,0x1091
    80000244:	909e8e9b          	addiw	x29,x29,-1783
    80000248:	00ce9e93          	slli	x29,x29,0xc
    8000024c:	080e8e93          	addi	x29,x29,128 # 1091080 <_start-0x7ef6ef80>
    80000250:	00e00193          	addi	x3,x0,14
    80000254:	4bdf1a63          	bne	x30,x29,80000708 <fail>

0000000080000258 <test_15>:
    80000258:	212120b7          	lui	x1,0x21212
    8000025c:	1210809b          	addiw	x1,x1,289
    80000260:	00e00113          	addi	x2,x0,14
    80000264:	00209f33          	sll	x30,x1,x2
    80000268:	21212eb7          	lui	x29,0x21212
    8000026c:	121e8e9b          	addiw	x29,x29,289
    80000270:	00ee9e93          	slli	x29,x29,0xe
    80000274:	00f00193          	addi	x3,x0,15
    80000278:	49df1863          	bne	x30,x29,80000708 <fail>

000000008000027c <test_16>:
    8000027c:	212120b7          	lui	x1,0x21212
    80000280:	1210809b          	addiw	x1,x1,289
    80000284:	01f00113          	addi	x2,x0,31
    80000288:	00209f33          	sll	x30,x1,x2
    8000028c:	21212eb7          	lui	x29,0x21212
    80000290:	121e8e9b          	addiw	x29,x29,289
    80000294:	01fe9e93          	slli	x29,x29,0x1f
    80000298:	01000193          	addi	x3,x0,16
    8000029c:	47df1663          	bne	x30,x29,80000708 <fail>

00000000800002a0 <test_17>:
    800002a0:	212120b7          	lui	x1,0x21212
    800002a4:	1210809b          	addiw	x1,x1,289
    800002a8:	fc000113          	addi	x2,x0,-64
    800002ac:	00209f33          	sll	x30,x1,x2
    800002b0:	21212eb7          	lui	x29,0x21212
    800002b4:	121e8e9b          	addiw	x29,x29,289
    800002b8:	01100193          	addi	x3,x0,17
    800002bc:	45df1663          	bne	x30,x29,80000708 <fail>

00000000800002c0 <test_18>:
    800002c0:	212120b7          	lui	x1,0x21212
    800002c4:	1210809b          	addiw	x1,x1,289
    800002c8:	fc100113          	addi	x2,x0,-63
    800002cc:	00209f33          	sll	x30,x1,x2
    800002d0:	42424eb7          	lui	x29,0x42424
    800002d4:	242e8e9b          	addiw	x29,x29,578
    800002d8:	01200193          	addi	x3,x0,18
    800002dc:	43df1663          	bne	x30,x29,80000708 <fail>

00000000800002e0 <test_19>:
    800002e0:	212120b7          	lui	x1,0x21212
    800002e4:	1210809b          	addiw	x1,x1,289
    800002e8:	fc700113          	addi	x2,x0,-57
    800002ec:	00209f33          	sll	x30,x1,x2
    800002f0:	01091eb7          	lui	x29,0x1091
    800002f4:	909e8e9b          	addiw	x29,x29,-1783
    800002f8:	00ce9e93          	slli	x29,x29,0xc
    800002fc:	080e8e93          	addi	x29,x29,128 # 1091080 <_start-0x7ef6ef80>
    80000300:	01300193          	addi	x3,x0,19
    80000304:	41df1263          	bne	x30,x29,80000708 <fail>

0000000080000308 <test_20>:
    80000308:	212120b7          	lui	x1,0x21212
    8000030c:	1210809b          	addiw	x1,x1,289
    80000310:	fce00113          	addi	x2,x0,-50
    80000314:	00209f33          	sll	x30,x1,x2
    80000318:	21212eb7          	lui	x29,0x21212
    8000031c:	121e8e9b          	addiw	x29,x29,289
    80000320:	00ee9e93          	slli	x29,x29,0xe
    80000324:	01400193          	addi	x3,x0,20
    80000328:	3fdf1063          	bne	x30,x29,80000708 <fail>

000000008000032c <test_21>:
    8000032c:	212120b7          	lui	x1,0x21212
    80000330:	1210809b          	addiw	x1,x1,289
    80000334:	fff00113          	addi	x2,x0,-1
    80000338:	00209f33          	sll	x30,x1,x2
    8000033c:	fff00e9b          	addiw	x29,x0,-1
    80000340:	03fe9e93          	slli	x29,x29,0x3f
    80000344:	01500193          	addi	x3,x0,21
    80000348:	3ddf1063          	bne	x30,x29,80000708 <fail>

000000008000034c <test_50>:
    8000034c:	00100093          	addi	x1,x0,1
    80000350:	03f00113          	addi	x2,x0,63
    80000354:	00209f33          	sll	x30,x1,x2
    80000358:	fff00e9b          	addiw	x29,x0,-1
    8000035c:	03fe9e93          	slli	x29,x29,0x3f
    80000360:	03200193          	addi	x3,x0,50
    80000364:	3bdf1263          	bne	x30,x29,80000708 <fail>

0000000080000368 <test_51>:
    80000368:	fff00093          	addi	x1,x0,-1
    8000036c:	02700113          	addi	x2,x0,39
    80000370:	00209f33          	sll	x30,x1,x2
    80000374:	fff00e9b          	addiw	x29,x0,-1
    80000378:	027e9e93          	slli	x29,x29,0x27
    8000037c:	03300193          	addi	x3,x0,51
    80000380:	39df1463          	bne	x30,x29,80000708 <fail>

0000000080000384 <test_52>:
    80000384:	212120b7          	lui	x1,0x21212
    80000388:	1210809b          	addiw	x1,x1,289
    8000038c:	02b00113          	addi	x2,x0,43
    80000390:	00209f33          	sll	x30,x1,x2
    80000394:	00012eb7          	lui	x29,0x12
    80000398:	121e8e9b          	addiw	x29,x29,289
    8000039c:	02be9e93          	slli	x29,x29,0x2b
    800003a0:	03400193          	addi	x3,x0,52
    800003a4:	37df1263          	bne	x30,x29,80000708 <fail>

00000000800003a8 <test_22>:
    800003a8:	00100093          	addi	x1,x0,1
    800003ac:	00700113          	addi	x2,x0,7
    800003b0:	002090b3          	sll	x1,x1,x2
    800003b4:	08000e93          	addi	x29,x0,128
    800003b8:	01600193          	addi	x3,x0,22
    800003bc:	35d09663          	bne	x1,x29,80000708 <fail>

00000000800003c0 <test_23>:
    800003c0:	00100093          	addi	x1,x0,1
    800003c4:	00e00113          	addi	x2,x0,14
    800003c8:	00209133          	sll	x2,x1,x2
    800003cc:	00004eb7          	lui	x29,0x4
    800003d0:	01700193          	addi	x3,x0,23
    800003d4:	33d11a63          	bne	x2,x29,80000708 <fail>

00000000800003d8 <test_24>:
    800003d8:	00300093          	addi	x1,x0,3
    800003dc:	001090b3          	sll	x1,x1,x1
    800003e0:	01800e93          	addi	x29,x0,24
    800003e4:	01800193          	addi	x3,x0,24
    800003e8:	33d09063          	bne	x1,x29,80000708 <fail>

00000000800003ec <test_25>:
    800003ec:	00000213          	addi	x4,x0,0
    800003f0:	00100093          	addi	x1,x0,1
    800003f4:	00700113          	addi	x2,x0,7
    800003f8:	00209f33          	sll	x30,x1,x2
    800003fc:	000f0313          	addi	x6,x30,0
    80000400:	00120213          	addi	x4,x4,1 # 1 <_start-0x7fffffff>
    80000404:	00200293          	addi	x5,x0,2
    80000408:	fe5214e3          	bne	x4,x5,800003f0 <test_25+0x4>
    8000040c:	08000e93          	addi	x29,x0,128
    80000410:	01900193          	addi	x3,x0,25
    80000414:	2fd31a63          	bne	x6,x29,80000708 <fail>

0000000080000418 <test_26>:
    80000418:	00000213          	addi	x4,x0,0
    8000041c:	00100093          	addi	x1,x0,1
    80000420:	00e00113          	addi	x2,x0,14
    80000424:	00209f33          	sll	x30,x1,x2
    80000428:	00000013          	addi	x0,x0,0
    8000042c:	000f0313          	addi	x6,x30,0
    80000430:	00120213          	addi	x4,x4,1 # 1 <_start-0x7fffffff>
    80000434:	00200293          	addi	x5,x0,2
    80000438:	fe5212e3          	bne	x4,x5,8000041c <test_26+0x4>
    8000043c:	00004eb7          	lui	x29,0x4
    80000440:	01a00193          	addi	x3,x0,26
    80000444:	2dd31263          	bne	x6,x29,80000708 <fail>

0000000080000448 <test_27>:
    80000448:	00000213          	addi	x4,x0,0
    8000044c:	00100093          	addi	x1,x0,1
    80000450:	01f00113          	addi	x2,x0,31
    80000454:	00209f33          	sll	x30,x1,x2
    80000458:	00000013          	addi	x0,x0,0
    8000045c:	00000013          	addi	x0,x0,0
    80000460:	000f0313          	addi	x6,x30,0
    80000464:	00120213          	addi	x4,x4,1 # 1 <_start-0x7fffffff>
    80000468:	00200293          	addi	x5,x0,2
    8000046c:	fe5210e3          	bne	x4,x5,8000044c <test_27+0x4>
    80000470:	00100e9b          	addiw	x29,x0,1
    80000474:	01fe9e93          	slli	x29,x29,0x1f
    80000478:	01b00193          	addi	x3,x0,27
    8000047c:	29d31663          	bne	x6,x29,80000708 <fail>

0000000080000480 <test_28>:
    80000480:	00000213          	addi	x4,x0,0
    80000484:	00100093          	addi	x1,x0,1
    80000488:	00700113          	addi	x2,x0,7
    8000048c:	00209f33          	sll	x30,x1,x2
    80000490:	00120213          	addi	x4,x4,1 # 1 <_start-0x7fffffff>
    80000494:	00200293          	addi	x5,x0,2
    80000498:	fe5216e3          	bne	x4,x5,80000484 <test_28+0x4>
    8000049c:	08000e93          	addi	x29,x0,128
    800004a0:	01c00193          	addi	x3,x0,28
    800004a4:	27df1263          	bne	x30,x29,80000708 <fail>

00000000800004a8 <test_29>:
    800004a8:	00000213          	addi	x4,x0,0
    800004ac:	00100093          	addi	x1,x0,1
    800004b0:	00e00113          	addi	x2,x0,14
    800004b4:	00000013          	addi	x0,x0,0
    800004b8:	00209f33          	sll	x30,x1,x2
    800004bc:	00120213          	addi	x4,x4,1 # 1 <_start-0x7fffffff>
    800004c0:	00200293          	addi	x5,x0,2
    800004c4:	fe5214e3          	bne	x4,x5,800004ac <test_29+0x4>
    800004c8:	00004eb7          	lui	x29,0x4
    800004cc:	01d00193          	addi	x3,x0,29
    800004d0:	23df1c63          	bne	x30,x29,80000708 <fail>

00000000800004d4 <test_30>:
    800004d4:	00000213          	addi	x4,x0,0
    800004d8:	00100093          	addi	x1,x0,1
    800004dc:	01f00113          	addi	x2,x0,31
    800004e0:	00000013          	addi	x0,x0,0
    800004e4:	00000013          	addi	x0,x0,0
    800004e8:	00209f33          	sll	x30,x1,x2
    800004ec:	00120213          	addi	x4,x4,1 # 1 <_start-0x7fffffff>
    800004f0:	00200293          	addi	x5,x0,2
    800004f4:	fe5212e3          	bne	x4,x5,800004d8 <test_30+0x4>
    800004f8:	00100e9b          	addiw	x29,x0,1
    800004fc:	01fe9e93          	slli	x29,x29,0x1f
    80000500:	01e00193          	addi	x3,x0,30
    80000504:	21df1263          	bne	x30,x29,80000708 <fail>

0000000080000508 <test_31>:
    80000508:	00000213          	addi	x4,x0,0
    8000050c:	00100093          	addi	x1,x0,1
    80000510:	00000013          	addi	x0,x0,0
    80000514:	00700113          	addi	x2,x0,7
    80000518:	00209f33          	sll	x30,x1,x2
    8000051c:	00120213          	addi	x4,x4,1 # 1 <_start-0x7fffffff>
    80000520:	00200293          	addi	x5,x0,2
    80000524:	fe5214e3          	bne	x4,x5,8000050c <test_31+0x4>
    80000528:	08000e93          	addi	x29,x0,128
    8000052c:	01f00193          	addi	x3,x0,31
    80000530:	1ddf1c63          	bne	x30,x29,80000708 <fail>

0000000080000534 <test_32>:
    80000534:	00000213          	addi	x4,x0,0
    80000538:	00100093          	addi	x1,x0,1
    8000053c:	00000013          	addi	x0,x0,0
    80000540:	00e00113          	addi	x2,x0,14
    80000544:	00000013          	addi	x0,x0,0
    80000548:	00209f33          	sll	x30,x1,x2
    8000054c:	00120213          	addi	x4,x4,1 # 1 <_start-0x7fffffff>
    80000550:	00200293          	addi	x5,x0,2
    80000554:	fe5212e3          	bne	x4,x5,80000538 <test_32+0x4>
    80000558:	00004eb7          	lui	x29,0x4
    8000055c:	02000193          	addi	x3,x0,32
    80000560:	1bdf1463          	bne	x30,x29,80000708 <fail>

0000000080000564 <test_33>:
    80000564:	00000213          	addi	x4,x0,0
    80000568:	00100093          	addi	x1,x0,1
    8000056c:	00000013          	addi	x0,x0,0
    80000570:	00000013          	addi	x0,x0,0
    80000574:	01f00113          	addi	x2,x0,31
    80000578:	00209f33          	sll	x30,x1,x2
    8000057c:	00120213          	addi	x4,x4,1 # 1 <_start-0x7fffffff>
    80000580:	00200293          	addi	x5,x0,2
    80000584:	fe5212e3          	bne	x4,x5,80000568 <test_33+0x4>
    80000588:	00100e9b          	addiw	x29,x0,1
    8000058c:	01fe9e93          	slli	x29,x29,0x1f
    80000590:	02100193          	addi	x3,x0,33
    80000594:	17df1a63          	bne	x30,x29,80000708 <fail>

0000000080000598 <test_34>:
    80000598:	00000213          	addi	x4,x0,0
    8000059c:	00700113          	addi	x2,x0,7
    800005a0:	00100093          	addi	x1,x0,1
    800005a4:	00209f33          	sll	x30,x1,x2
    800005a8:	00120213          	addi	x4,x4,1 # 1 <_start-0x7fffffff>
    800005ac:	00200293          	addi	x5,x0,2
    800005b0:	fe5216e3          	bne	x4,x5,8000059c <test_34+0x4>
    800005b4:	08000e93          	addi	x29,x0,128
    800005b8:	02200193          	addi	x3,x0,34
    800005bc:	15df1663          	bne	x30,x29,80000708 <fail>

00000000800005c0 <test_35>:
    800005c0:	00000213          	addi	x4,x0,0
    800005c4:	00e00113          	addi	x2,x0,14
    800005c8:	00100093          	addi	x1,x0,1
    800005cc:	00000013          	addi	x0,x0,0
    800005d0:	00209f33          	sll	x30,x1,x2
    800005d4:	00120213          	addi	x4,x4,1 # 1 <_start-0x7fffffff>
    800005d8:	00200293          	addi	x5,x0,2
    800005dc:	fe5214e3          	bne	x4,x5,800005c4 <test_35+0x4>
    800005e0:	00004eb7          	lui	x29,0x4
    800005e4:	02300193          	addi	x3,x0,35
    800005e8:	13df1063          	bne	x30,x29,80000708 <fail>

00000000800005ec <test_36>:
    800005ec:	00000213          	addi	x4,x0,0
    800005f0:	01f00113          	addi	x2,x0,31
    800005f4:	00100093          	addi	x1,x0,1
    800005f8:	00000013          	addi	x0,x0,0
    800005fc:	00000013          	addi	x0,x0,0
    80000600:	00209f33          	sll	x30,x1,x2
    80000604:	00120213          	addi	x4,x4,1 # 1 <_start-0x7fffffff>
    80000608:	00200293          	addi	x5,x0,2
    8000060c:	fe5212e3          	bne	x4,x5,800005f0 <test_36+0x4>
    80000610:	00100e9b          	addiw	x29,x0,1
    80000614:	01fe9e93          	slli	x29,x29,0x1f
    80000618:	02400193          	addi	x3,x0,36
    8000061c:	0fdf1663          	bne	x30,x29,80000708 <fail>

0000000080000620 <test_37>:
    80000620:	00000213          	addi	x4,x0,0
    80000624:	00700113          	addi	x2,x0,7
    80000628:	00000013          	addi	x0,x0,0
    8000062c:	00100093          	addi	x1,x0,1
    80000630:	00209f33          	sll	x30,x1,x2
    80000634:	00120213          	addi	x4,x4,1 # 1 <_start-0x7fffffff>
    80000638:	00200293          	addi	x5,x0,2
    8000063c:	fe5214e3          	bne	x4,x5,80000624 <test_37+0x4>
    80000640:	08000e93          	addi	x29,x0,128
    80000644:	02500193          	addi	x3,x0,37
    80000648:	0ddf1063          	bne	x30,x29,80000708 <fail>

000000008000064c <test_38>:
    8000064c:	00000213          	addi	x4,x0,0
    80000650:	00e00113          	addi	x2,x0,14
    80000654:	00000013          	addi	x0,x0,0
    80000658:	00100093          	addi	x1,x0,1
    8000065c:	00000013          	addi	x0,x0,0
    80000660:	00209f33          	sll	x30,x1,x2
    80000664:	00120213          	addi	x4,x4,1 # 1 <_start-0x7fffffff>
    80000668:	00200293          	addi	x5,x0,2
    8000066c:	fe5212e3          	bne	x4,x5,80000650 <test_38+0x4>
    80000670:	00004eb7          	lui	x29,0x4
    80000674:	02600193          	addi	x3,x0,38
    80000678:	09df1863          	bne	x30,x29,80000708 <fail>

000000008000067c <test_39>:
    8000067c:	00000213          	addi	x4,x0,0
    80000680:	01f00113          	addi	x2,x0,31
    80000684:	00000013          	addi	x0,x0,0
    80000688:	00000013          	addi	x0,x0,0
    8000068c:	00100093          	addi	x1,x0,1
    80000690:	00209f33          	sll	x30,x1,x2
    80000694:	00120213          	addi	x4,x4,1 # 1 <_start-0x7fffffff>
    80000698:	00200293          	addi	x5,x0,2
    8000069c:	fe5212e3          	bne	x4,x5,80000680 <test_39+0x4>
    800006a0:	00100e9b          	addiw	x29,x0,1
    800006a4:	01fe9e93          	slli	x29,x29,0x1f
    800006a8:	02700193          	addi	x3,x0,39
    800006ac:	05df1e63          	bne	x30,x29,80000708 <fail>

00000000800006b0 <test_40>:
    800006b0:	00f00093          	addi	x1,x0,15
    800006b4:	00101133          	sll	x2,x0,x1
    800006b8:	00000e93          	addi	x29,x0,0
    800006bc:	02800193          	addi	x3,x0,40
    800006c0:	05d11463          	bne	x2,x29,80000708 <fail>

00000000800006c4 <test_41>:
    800006c4:	02000093          	addi	x1,x0,32
    800006c8:	00009133          	sll	x2,x1,x0
    800006cc:	02000e93          	addi	x29,x0,32
    800006d0:	02900193          	addi	x3,x0,41
    800006d4:	03d11a63          	bne	x2,x29,80000708 <fail>

00000000800006d8 <test_42>:
    800006d8:	000010b3          	sll	x1,x0,x0
    800006dc:	00000e93          	addi	x29,x0,0
    800006e0:	02a00193          	addi	x3,x0,42
    800006e4:	03d09263          	bne	x1,x29,80000708 <fail>

00000000800006e8 <test_43>:
    800006e8:	40000093          	addi	x1,x0,1024
    800006ec:	00001137          	lui	x2,0x1
    800006f0:	8001011b          	addiw	x2,x2,-2048
    800006f4:	00209033          	sll	x0,x1,x2
    800006f8:	00000e93          	addi	x29,x0,0
    800006fc:	02b00193          	addi	x3,x0,43
    80000700:	01d01463          	bne	x0,x29,80000708 <fail>
    80000704:	00301c63          	bne	x0,x3,8000071c <pass>

0000000080000708 <fail>:
    80000708:	0ff0000f          	fence	iorw,iorw
    8000070c:	00018063          	beq	x3,x0,8000070c <fail+0x4>
    80000710:	00119193          	slli	x3,x3,0x1
    80000714:	0011e193          	ori	x3,x3,1
    80000718:	00000073          	ecall

000000008000071c <pass>:
    8000071c:	0ff0000f          	fence	iorw,iorw
    80000720:	00100193          	addi	x3,x0,1
    80000724:	00000073          	ecall
    80000728:	c0001073          	unimp
	...
