
rv64ui-p-sb:     file format elf64-littleriscv


Disassembly of section .text.init:

0000000080000000 <_start>:
    80000000:	04c0006f          	jal	x0,8000004c <reset_vector>

0000000080000004 <trap_vector>:
    80000004:	34202f73          	csrrs	x30,mcause,x0
    80000008:	00800f93          	addi	x31,x0,8
    8000000c:	03ff0a63          	beq	x30,x31,80000040 <write_tohost>
    80000010:	00900f93          	addi	x31,x0,9
    80000014:	03ff0663          	beq	x30,x31,80000040 <write_tohost>
    80000018:	00b00f93          	addi	x31,x0,11
    8000001c:	03ff0263          	beq	x30,x31,80000040 <write_tohost>
    80000020:	80000f17          	auipc	x30,0x80000
    80000024:	fe0f0f13          	addi	x30,x30,-32 # 0 <_start-0x80000000>
    80000028:	000f0463          	beq	x30,x0,80000030 <trap_vector+0x2c>
    8000002c:	000f0067          	jalr	x0,0(x30)
    80000030:	34202f73          	csrrs	x30,mcause,x0
    80000034:	000f5463          	bge	x30,x0,8000003c <handle_exception>
    80000038:	0040006f          	jal	x0,8000003c <handle_exception>

000000008000003c <handle_exception>:
    8000003c:	5391e193          	ori	x3,x3,1337

0000000080000040 <write_tohost>:
    80000040:	00001f17          	auipc	x30,0x1
    80000044:	fc3f2023          	sw	x3,-64(x30) # 80001000 <tohost>
    80000048:	ff9ff06f          	jal	x0,80000040 <write_tohost>

000000008000004c <reset_vector>:
    8000004c:	f1402573          	csrrs	x10,mhartid,x0
    80000050:	00051063          	bne	x10,x0,80000050 <reset_vector+0x4>
    80000054:	00000297          	auipc	x5,0x0
    80000058:	01028293          	addi	x5,x5,16 # 80000064 <reset_vector+0x18>
    8000005c:	30529073          	csrrw	x0,mtvec,x5
    80000060:	18005073          	csrrwi	x0,sptbr,0
    80000064:	00000297          	auipc	x5,0x0
    80000068:	01c28293          	addi	x5,x5,28 # 80000080 <reset_vector+0x34>
    8000006c:	30529073          	csrrw	x0,mtvec,x5
    80000070:	fff00293          	addi	x5,x0,-1
    80000074:	3b029073          	csrrw	x0,pmpaddr0,x5
    80000078:	01f00293          	addi	x5,x0,31
    8000007c:	3a029073          	csrrw	x0,pmpcfg0,x5
    80000080:	00000297          	auipc	x5,0x0
    80000084:	01828293          	addi	x5,x5,24 # 80000098 <reset_vector+0x4c>
    80000088:	30529073          	csrrw	x0,mtvec,x5
    8000008c:	30205073          	csrrwi	x0,medeleg,0
    80000090:	30305073          	csrrwi	x0,mideleg,0
    80000094:	30405073          	csrrwi	x0,mie,0
    80000098:	00000193          	addi	x3,x0,0
    8000009c:	00000297          	auipc	x5,0x0
    800000a0:	f6828293          	addi	x5,x5,-152 # 80000004 <trap_vector>
    800000a4:	30529073          	csrrw	x0,mtvec,x5
    800000a8:	00100513          	addi	x10,x0,1
    800000ac:	01f51513          	slli	x10,x10,0x1f
    800000b0:	00055863          	bge	x10,x0,800000c0 <reset_vector+0x74>
    800000b4:	0ff0000f          	fence	iorw,iorw
    800000b8:	00100193          	addi	x3,x0,1
    800000bc:	00000073          	ecall
    800000c0:	80000297          	auipc	x5,0x80000
    800000c4:	f4028293          	addi	x5,x5,-192 # 0 <_start-0x80000000>
    800000c8:	00028e63          	beq	x5,x0,800000e4 <reset_vector+0x98>
    800000cc:	10529073          	csrrw	x0,stvec,x5
    800000d0:	0000b2b7          	lui	x5,0xb
    800000d4:	1092829b          	addiw	x5,x5,265
    800000d8:	30229073          	csrrw	x0,medeleg,x5
    800000dc:	30202373          	csrrs	x6,medeleg,x0
    800000e0:	f4629ee3          	bne	x5,x6,8000003c <handle_exception>
    800000e4:	30005073          	csrrwi	x0,mstatus,0
    800000e8:	00000297          	auipc	x5,0x0
    800000ec:	01428293          	addi	x5,x5,20 # 800000fc <test_2>
    800000f0:	34129073          	csrrw	x0,mepc,x5
    800000f4:	f1402573          	csrrs	x10,mhartid,x0
    800000f8:	30200073          	mret

00000000800000fc <test_2>:
    800000fc:	00002097          	auipc	x1,0x2
    80000100:	f0408093          	addi	x1,x1,-252 # 80002000 <begin_signature>
    80000104:	faa00113          	addi	x2,x0,-86
    80000108:	00208023          	sb	x2,0(x1)
    8000010c:	00008f03          	lb	x30,0(x1)
    80000110:	faa00e93          	addi	x29,x0,-86
    80000114:	00200193          	addi	x3,x0,2
    80000118:	3ddf1c63          	bne	x30,x29,800004f0 <fail>

000000008000011c <test_3>:
    8000011c:	00002097          	auipc	x1,0x2
    80000120:	ee408093          	addi	x1,x1,-284 # 80002000 <begin_signature>
    80000124:	00000113          	addi	x2,x0,0
    80000128:	002080a3          	sb	x2,1(x1)
    8000012c:	00108f03          	lb	x30,1(x1)
    80000130:	00000e93          	addi	x29,x0,0
    80000134:	00300193          	addi	x3,x0,3
    80000138:	3bdf1c63          	bne	x30,x29,800004f0 <fail>

000000008000013c <test_4>:
    8000013c:	00002097          	auipc	x1,0x2
    80000140:	ec408093          	addi	x1,x1,-316 # 80002000 <begin_signature>
    80000144:	fffff137          	lui	x2,0xfffff
    80000148:	fa01011b          	addiw	x2,x2,-96
    8000014c:	00208123          	sb	x2,2(x1)
    80000150:	00209f03          	lh	x30,2(x1)
    80000154:	fffffeb7          	lui	x29,0xfffff
    80000158:	fa0e8e9b          	addiw	x29,x29,-96
    8000015c:	00400193          	addi	x3,x0,4
    80000160:	39df1863          	bne	x30,x29,800004f0 <fail>

0000000080000164 <test_5>:
    80000164:	00002097          	auipc	x1,0x2
    80000168:	e9c08093          	addi	x1,x1,-356 # 80002000 <begin_signature>
    8000016c:	00a00113          	addi	x2,x0,10
    80000170:	002081a3          	sb	x2,3(x1)
    80000174:	00308f03          	lb	x30,3(x1)
    80000178:	00a00e93          	addi	x29,x0,10
    8000017c:	00500193          	addi	x3,x0,5
    80000180:	37df1863          	bne	x30,x29,800004f0 <fail>

0000000080000184 <test_6>:
    80000184:	00002097          	auipc	x1,0x2
    80000188:	e8308093          	addi	x1,x1,-381 # 80002007 <tdat8>
    8000018c:	faa00113          	addi	x2,x0,-86
    80000190:	fe208ea3          	sb	x2,-3(x1)
    80000194:	ffd08f03          	lb	x30,-3(x1)
    80000198:	faa00e93          	addi	x29,x0,-86
    8000019c:	00600193          	addi	x3,x0,6
    800001a0:	35df1863          	bne	x30,x29,800004f0 <fail>

00000000800001a4 <test_7>:
    800001a4:	00002097          	auipc	x1,0x2
    800001a8:	e6308093          	addi	x1,x1,-413 # 80002007 <tdat8>
    800001ac:	00000113          	addi	x2,x0,0
    800001b0:	fe208f23          	sb	x2,-2(x1)
    800001b4:	ffe08f03          	lb	x30,-2(x1)
    800001b8:	00000e93          	addi	x29,x0,0
    800001bc:	00700193          	addi	x3,x0,7
    800001c0:	33df1863          	bne	x30,x29,800004f0 <fail>

00000000800001c4 <test_8>:
    800001c4:	00002097          	auipc	x1,0x2
    800001c8:	e4308093          	addi	x1,x1,-445 # 80002007 <tdat8>
    800001cc:	fa000113          	addi	x2,x0,-96
    800001d0:	fe208fa3          	sb	x2,-1(x1)
    800001d4:	fff08f03          	lb	x30,-1(x1)
    800001d8:	fa000e93          	addi	x29,x0,-96
    800001dc:	00800193          	addi	x3,x0,8
    800001e0:	31df1863          	bne	x30,x29,800004f0 <fail>

00000000800001e4 <test_9>:
    800001e4:	00002097          	auipc	x1,0x2
    800001e8:	e2308093          	addi	x1,x1,-477 # 80002007 <tdat8>
    800001ec:	00a00113          	addi	x2,x0,10
    800001f0:	00208023          	sb	x2,0(x1)
    800001f4:	00008f03          	lb	x30,0(x1)
    800001f8:	00a00e93          	addi	x29,x0,10
    800001fc:	00900193          	addi	x3,x0,9
    80000200:	2fdf1863          	bne	x30,x29,800004f0 <fail>

0000000080000204 <test_10>:
    80000204:	00002097          	auipc	x1,0x2
    80000208:	e0408093          	addi	x1,x1,-508 # 80002008 <tdat9>
    8000020c:	12345137          	lui	x2,0x12345
    80000210:	6781011b          	addiw	x2,x2,1656
    80000214:	fe008213          	addi	x4,x1,-32
    80000218:	02220023          	sb	x2,32(x4) # 20 <_start-0x7fffffe0>
    8000021c:	00008283          	lb	x5,0(x1)
    80000220:	07800e93          	addi	x29,x0,120
    80000224:	00a00193          	addi	x3,x0,10
    80000228:	2dd29463          	bne	x5,x29,800004f0 <fail>

000000008000022c <test_11>:
    8000022c:	00002097          	auipc	x1,0x2
    80000230:	ddc08093          	addi	x1,x1,-548 # 80002008 <tdat9>
    80000234:	00003137          	lui	x2,0x3
    80000238:	0981011b          	addiw	x2,x2,152
    8000023c:	ffa08093          	addi	x1,x1,-6
    80000240:	002083a3          	sb	x2,7(x1)
    80000244:	00002217          	auipc	x4,0x2
    80000248:	dc520213          	addi	x4,x4,-571 # 80002009 <tdat10>
    8000024c:	00020283          	lb	x5,0(x4) # 0 <_start-0x80000000>
    80000250:	f9800e93          	addi	x29,x0,-104
    80000254:	00b00193          	addi	x3,x0,11
    80000258:	29d29c63          	bne	x5,x29,800004f0 <fail>

000000008000025c <test_12>:
    8000025c:	00c00193          	addi	x3,x0,12
    80000260:	00000213          	addi	x4,x0,0
    80000264:	fdd00093          	addi	x1,x0,-35
    80000268:	00002117          	auipc	x2,0x2
    8000026c:	d9810113          	addi	x2,x2,-616 # 80002000 <begin_signature>
    80000270:	00110023          	sb	x1,0(x2)
    80000274:	00010f03          	lb	x30,0(x2)
    80000278:	fdd00e93          	addi	x29,x0,-35
    8000027c:	27df1a63          	bne	x30,x29,800004f0 <fail>
    80000280:	00120213          	addi	x4,x4,1 # 1 <_start-0x7fffffff>
    80000284:	00200293          	addi	x5,x0,2
    80000288:	fc521ee3          	bne	x4,x5,80000264 <test_12+0x8>

000000008000028c <test_13>:
    8000028c:	00d00193          	addi	x3,x0,13
    80000290:	00000213          	addi	x4,x0,0
    80000294:	fcd00093          	addi	x1,x0,-51
    80000298:	00002117          	auipc	x2,0x2
    8000029c:	d6810113          	addi	x2,x2,-664 # 80002000 <begin_signature>
    800002a0:	00000013          	addi	x0,x0,0
    800002a4:	001100a3          	sb	x1,1(x2)
    800002a8:	00110f03          	lb	x30,1(x2)
    800002ac:	fcd00e93          	addi	x29,x0,-51
    800002b0:	25df1063          	bne	x30,x29,800004f0 <fail>
    800002b4:	00120213          	addi	x4,x4,1 # 1 <_start-0x7fffffff>
    800002b8:	00200293          	addi	x5,x0,2
    800002bc:	fc521ce3          	bne	x4,x5,80000294 <test_13+0x8>

00000000800002c0 <test_14>:
    800002c0:	00e00193          	addi	x3,x0,14
    800002c4:	00000213          	addi	x4,x0,0
    800002c8:	fcc00093          	addi	x1,x0,-52
    800002cc:	00002117          	auipc	x2,0x2
    800002d0:	d3410113          	addi	x2,x2,-716 # 80002000 <begin_signature>
    800002d4:	00000013          	addi	x0,x0,0
    800002d8:	00000013          	addi	x0,x0,0
    800002dc:	00110123          	sb	x1,2(x2)
    800002e0:	00210f03          	lb	x30,2(x2)
    800002e4:	fcc00e93          	addi	x29,x0,-52
    800002e8:	21df1463          	bne	x30,x29,800004f0 <fail>
    800002ec:	00120213          	addi	x4,x4,1 # 1 <_start-0x7fffffff>
    800002f0:	00200293          	addi	x5,x0,2
    800002f4:	fc521ae3          	bne	x4,x5,800002c8 <test_14+0x8>

00000000800002f8 <test_15>:
    800002f8:	00f00193          	addi	x3,x0,15
    800002fc:	00000213          	addi	x4,x0,0
    80000300:	fbc00093          	addi	x1,x0,-68
    80000304:	00000013          	addi	x0,x0,0
    80000308:	00002117          	auipc	x2,0x2
    8000030c:	cf810113          	addi	x2,x2,-776 # 80002000 <begin_signature>
    80000310:	001101a3          	sb	x1,3(x2)
    80000314:	00310f03          	lb	x30,3(x2)
    80000318:	fbc00e93          	addi	x29,x0,-68
    8000031c:	1ddf1a63          	bne	x30,x29,800004f0 <fail>
    80000320:	00120213          	addi	x4,x4,1 # 1 <_start-0x7fffffff>
    80000324:	00200293          	addi	x5,x0,2
    80000328:	fc521ce3          	bne	x4,x5,80000300 <test_15+0x8>

000000008000032c <test_16>:
    8000032c:	01000193          	addi	x3,x0,16
    80000330:	00000213          	addi	x4,x0,0
    80000334:	fbb00093          	addi	x1,x0,-69
    80000338:	00000013          	addi	x0,x0,0
    8000033c:	00002117          	auipc	x2,0x2
    80000340:	cc410113          	addi	x2,x2,-828 # 80002000 <begin_signature>
    80000344:	00000013          	addi	x0,x0,0
    80000348:	00110223          	sb	x1,4(x2)
    8000034c:	00410f03          	lb	x30,4(x2)
    80000350:	fbb00e93          	addi	x29,x0,-69
    80000354:	19df1e63          	bne	x30,x29,800004f0 <fail>
    80000358:	00120213          	addi	x4,x4,1 # 1 <_start-0x7fffffff>
    8000035c:	00200293          	addi	x5,x0,2
    80000360:	fc521ae3          	bne	x4,x5,80000334 <test_16+0x8>

0000000080000364 <test_17>:
    80000364:	01100193          	addi	x3,x0,17
    80000368:	00000213          	addi	x4,x0,0
    8000036c:	fab00093          	addi	x1,x0,-85
    80000370:	00000013          	addi	x0,x0,0
    80000374:	00000013          	addi	x0,x0,0
    80000378:	00002117          	auipc	x2,0x2
    8000037c:	c8810113          	addi	x2,x2,-888 # 80002000 <begin_signature>
    80000380:	001102a3          	sb	x1,5(x2)
    80000384:	00510f03          	lb	x30,5(x2)
    80000388:	fab00e93          	addi	x29,x0,-85
    8000038c:	17df1263          	bne	x30,x29,800004f0 <fail>
    80000390:	00120213          	addi	x4,x4,1 # 1 <_start-0x7fffffff>
    80000394:	00200293          	addi	x5,x0,2
    80000398:	fc521ae3          	bne	x4,x5,8000036c <test_17+0x8>

000000008000039c <test_18>:
    8000039c:	01200193          	addi	x3,x0,18
    800003a0:	00000213          	addi	x4,x0,0
    800003a4:	00002117          	auipc	x2,0x2
    800003a8:	c5c10113          	addi	x2,x2,-932 # 80002000 <begin_signature>
    800003ac:	03300093          	addi	x1,x0,51
    800003b0:	00110023          	sb	x1,0(x2)
    800003b4:	00010f03          	lb	x30,0(x2)
    800003b8:	03300e93          	addi	x29,x0,51
    800003bc:	13df1a63          	bne	x30,x29,800004f0 <fail>
    800003c0:	00120213          	addi	x4,x4,1 # 1 <_start-0x7fffffff>
    800003c4:	00200293          	addi	x5,x0,2
    800003c8:	fc521ee3          	bne	x4,x5,800003a4 <test_18+0x8>

00000000800003cc <test_19>:
    800003cc:	01300193          	addi	x3,x0,19
    800003d0:	00000213          	addi	x4,x0,0
    800003d4:	00002117          	auipc	x2,0x2
    800003d8:	c2c10113          	addi	x2,x2,-980 # 80002000 <begin_signature>
    800003dc:	02300093          	addi	x1,x0,35
    800003e0:	00000013          	addi	x0,x0,0
    800003e4:	001100a3          	sb	x1,1(x2)
    800003e8:	00110f03          	lb	x30,1(x2)
    800003ec:	02300e93          	addi	x29,x0,35
    800003f0:	11df1063          	bne	x30,x29,800004f0 <fail>
    800003f4:	00120213          	addi	x4,x4,1 # 1 <_start-0x7fffffff>
    800003f8:	00200293          	addi	x5,x0,2
    800003fc:	fc521ce3          	bne	x4,x5,800003d4 <test_19+0x8>

0000000080000400 <test_20>:
    80000400:	01400193          	addi	x3,x0,20
    80000404:	00000213          	addi	x4,x0,0
    80000408:	00002117          	auipc	x2,0x2
    8000040c:	bf810113          	addi	x2,x2,-1032 # 80002000 <begin_signature>
    80000410:	02200093          	addi	x1,x0,34
    80000414:	00000013          	addi	x0,x0,0
    80000418:	00000013          	addi	x0,x0,0
    8000041c:	00110123          	sb	x1,2(x2)
    80000420:	00210f03          	lb	x30,2(x2)
    80000424:	02200e93          	addi	x29,x0,34
    80000428:	0ddf1463          	bne	x30,x29,800004f0 <fail>
    8000042c:	00120213          	addi	x4,x4,1 # 1 <_start-0x7fffffff>
    80000430:	00200293          	addi	x5,x0,2
    80000434:	fc521ae3          	bne	x4,x5,80000408 <test_20+0x8>

0000000080000438 <test_21>:
    80000438:	01500193          	addi	x3,x0,21
    8000043c:	00000213          	addi	x4,x0,0
    80000440:	00002117          	auipc	x2,0x2
    80000444:	bc010113          	addi	x2,x2,-1088 # 80002000 <begin_signature>
    80000448:	00000013          	addi	x0,x0,0
    8000044c:	01200093          	addi	x1,x0,18
    80000450:	001101a3          	sb	x1,3(x2)
    80000454:	00310f03          	lb	x30,3(x2)
    80000458:	01200e93          	addi	x29,x0,18
    8000045c:	09df1a63          	bne	x30,x29,800004f0 <fail>
    80000460:	00120213          	addi	x4,x4,1 # 1 <_start-0x7fffffff>
    80000464:	00200293          	addi	x5,x0,2
    80000468:	fc521ce3          	bne	x4,x5,80000440 <test_21+0x8>

000000008000046c <test_22>:
    8000046c:	01600193          	addi	x3,x0,22
    80000470:	00000213          	addi	x4,x0,0
    80000474:	00002117          	auipc	x2,0x2
    80000478:	b8c10113          	addi	x2,x2,-1140 # 80002000 <begin_signature>
    8000047c:	00000013          	addi	x0,x0,0
    80000480:	01100093          	addi	x1,x0,17
    80000484:	00000013          	addi	x0,x0,0
    80000488:	00110223          	sb	x1,4(x2)
    8000048c:	00410f03          	lb	x30,4(x2)
    80000490:	01100e93          	addi	x29,x0,17
    80000494:	05df1e63          	bne	x30,x29,800004f0 <fail>
    80000498:	00120213          	addi	x4,x4,1 # 1 <_start-0x7fffffff>
    8000049c:	00200293          	addi	x5,x0,2
    800004a0:	fc521ae3          	bne	x4,x5,80000474 <test_22+0x8>

00000000800004a4 <test_23>:
    800004a4:	01700193          	addi	x3,x0,23
    800004a8:	00000213          	addi	x4,x0,0
    800004ac:	00002117          	auipc	x2,0x2
    800004b0:	b5410113          	addi	x2,x2,-1196 # 80002000 <begin_signature>
    800004b4:	00000013          	addi	x0,x0,0
    800004b8:	00000013          	addi	x0,x0,0
    800004bc:	00100093          	addi	x1,x0,1
    800004c0:	001102a3          	sb	x1,5(x2)
    800004c4:	00510f03          	lb	x30,5(x2)
    800004c8:	00100e93          	addi	x29,x0,1
    800004cc:	03df1263          	bne	x30,x29,800004f0 <fail>
    800004d0:	00120213          	addi	x4,x4,1 # 1 <_start-0x7fffffff>
    800004d4:	00200293          	addi	x5,x0,2
    800004d8:	fc521ae3          	bne	x4,x5,800004ac <test_23+0x8>
    800004dc:	0ef00513          	addi	x10,x0,239
    800004e0:	00002597          	auipc	x11,0x2
    800004e4:	b2058593          	addi	x11,x11,-1248 # 80002000 <begin_signature>
    800004e8:	00a581a3          	sb	x10,3(x11)
    800004ec:	00301c63          	bne	x0,x3,80000504 <pass>

00000000800004f0 <fail>:
    800004f0:	0ff0000f          	fence	iorw,iorw
    800004f4:	00018063          	beq	x3,x0,800004f4 <fail+0x4>
    800004f8:	00119193          	slli	x3,x3,0x1
    800004fc:	0011e193          	ori	x3,x3,1
    80000500:	00000073          	ecall

0000000080000504 <pass>:
    80000504:	0ff0000f          	fence	iorw,iorw
    80000508:	00100193          	addi	x3,x0,1
    8000050c:	00000073          	ecall
    80000510:	c0001073          	unimp
	...
