
rv64ui-p-bltu:     file format elf64-littleriscv


Disassembly of section .text.init:

0000000080000000 <_start>:
    80000000:	04c0006f          	jal	x0,8000004c <reset_vector>

0000000080000004 <trap_vector>:
    80000004:	34202f73          	csrrs	x30,mcause,x0
    80000008:	00800f93          	addi	x31,x0,8
    8000000c:	03ff0a63          	beq	x30,x31,80000040 <write_tohost>
    80000010:	00900f93          	addi	x31,x0,9
    80000014:	03ff0663          	beq	x30,x31,80000040 <write_tohost>
    80000018:	00b00f93          	addi	x31,x0,11
    8000001c:	03ff0263          	beq	x30,x31,80000040 <write_tohost>
    80000020:	80000f17          	auipc	x30,0x80000
    80000024:	fe0f0f13          	addi	x30,x30,-32 # 0 <_start-0x80000000>
    80000028:	000f0463          	beq	x30,x0,80000030 <trap_vector+0x2c>
    8000002c:	000f0067          	jalr	x0,0(x30)
    80000030:	34202f73          	csrrs	x30,mcause,x0
    80000034:	000f5463          	bge	x30,x0,8000003c <handle_exception>
    80000038:	0040006f          	jal	x0,8000003c <handle_exception>

000000008000003c <handle_exception>:
    8000003c:	5391e193          	ori	x3,x3,1337

0000000080000040 <write_tohost>:
    80000040:	00001f17          	auipc	x30,0x1
    80000044:	fc3f2023          	sw	x3,-64(x30) # 80001000 <tohost>
    80000048:	ff9ff06f          	jal	x0,80000040 <write_tohost>

000000008000004c <reset_vector>:
    8000004c:	f1402573          	csrrs	x10,mhartid,x0
    80000050:	00051063          	bne	x10,x0,80000050 <reset_vector+0x4>
    80000054:	00000297          	auipc	x5,0x0
    80000058:	01028293          	addi	x5,x5,16 # 80000064 <reset_vector+0x18>
    8000005c:	30529073          	csrrw	x0,mtvec,x5
    80000060:	18005073          	csrrwi	x0,sptbr,0
    80000064:	00000297          	auipc	x5,0x0
    80000068:	01c28293          	addi	x5,x5,28 # 80000080 <reset_vector+0x34>
    8000006c:	30529073          	csrrw	x0,mtvec,x5
    80000070:	fff00293          	addi	x5,x0,-1
    80000074:	3b029073          	csrrw	x0,pmpaddr0,x5
    80000078:	01f00293          	addi	x5,x0,31
    8000007c:	3a029073          	csrrw	x0,pmpcfg0,x5
    80000080:	00000297          	auipc	x5,0x0
    80000084:	01828293          	addi	x5,x5,24 # 80000098 <reset_vector+0x4c>
    80000088:	30529073          	csrrw	x0,mtvec,x5
    8000008c:	30205073          	csrrwi	x0,medeleg,0
    80000090:	30305073          	csrrwi	x0,mideleg,0
    80000094:	30405073          	csrrwi	x0,mie,0
    80000098:	00000193          	addi	x3,x0,0
    8000009c:	00000297          	auipc	x5,0x0
    800000a0:	f6828293          	addi	x5,x5,-152 # 80000004 <trap_vector>
    800000a4:	30529073          	csrrw	x0,mtvec,x5
    800000a8:	00100513          	addi	x10,x0,1
    800000ac:	01f51513          	slli	x10,x10,0x1f
    800000b0:	00055863          	bge	x10,x0,800000c0 <reset_vector+0x74>
    800000b4:	0ff0000f          	fence	iorw,iorw
    800000b8:	00100193          	addi	x3,x0,1
    800000bc:	00000073          	ecall
    800000c0:	80000297          	auipc	x5,0x80000
    800000c4:	f4028293          	addi	x5,x5,-192 # 0 <_start-0x80000000>
    800000c8:	00028e63          	beq	x5,x0,800000e4 <reset_vector+0x98>
    800000cc:	10529073          	csrrw	x0,stvec,x5
    800000d0:	0000b2b7          	lui	x5,0xb
    800000d4:	1092829b          	addiw	x5,x5,265
    800000d8:	30229073          	csrrw	x0,medeleg,x5
    800000dc:	30202373          	csrrs	x6,medeleg,x0
    800000e0:	f4629ee3          	bne	x5,x6,8000003c <handle_exception>
    800000e4:	30005073          	csrrwi	x0,mstatus,0
    800000e8:	00000297          	auipc	x5,0x0
    800000ec:	01428293          	addi	x5,x5,20 # 800000fc <test_2>
    800000f0:	34129073          	csrrw	x0,mepc,x5
    800000f4:	f1402573          	csrrs	x10,mhartid,x0
    800000f8:	30200073          	mret

00000000800000fc <test_2>:
    800000fc:	00200193          	addi	x3,x0,2
    80000100:	00000093          	addi	x1,x0,0
    80000104:	00100113          	addi	x2,x0,1
    80000108:	0020e663          	bltu	x1,x2,80000114 <test_2+0x18>
    8000010c:	36301c63          	bne	x0,x3,80000484 <fail>
    80000110:	00301663          	bne	x0,x3,8000011c <test_3>
    80000114:	fe20eee3          	bltu	x1,x2,80000110 <test_2+0x14>
    80000118:	36301663          	bne	x0,x3,80000484 <fail>

000000008000011c <test_3>:
    8000011c:	00300193          	addi	x3,x0,3
    80000120:	0010009b          	addiw	x1,x0,1
    80000124:	02009093          	slli	x1,x1,0x20
    80000128:	ffe08093          	addi	x1,x1,-2
    8000012c:	0010011b          	addiw	x2,x0,1
    80000130:	02011113          	slli	x2,x2,0x20
    80000134:	fff10113          	addi	x2,x2,-1
    80000138:	0020e663          	bltu	x1,x2,80000144 <test_3+0x28>
    8000013c:	34301463          	bne	x0,x3,80000484 <fail>
    80000140:	00301663          	bne	x0,x3,8000014c <test_4>
    80000144:	fe20eee3          	bltu	x1,x2,80000140 <test_3+0x24>
    80000148:	32301e63          	bne	x0,x3,80000484 <fail>

000000008000014c <test_4>:
    8000014c:	00400193          	addi	x3,x0,4
    80000150:	00000093          	addi	x1,x0,0
    80000154:	0010011b          	addiw	x2,x0,1
    80000158:	02011113          	slli	x2,x2,0x20
    8000015c:	fff10113          	addi	x2,x2,-1
    80000160:	0020e663          	bltu	x1,x2,8000016c <test_4+0x20>
    80000164:	32301063          	bne	x0,x3,80000484 <fail>
    80000168:	00301663          	bne	x0,x3,80000174 <test_5>
    8000016c:	fe20eee3          	bltu	x1,x2,80000168 <test_4+0x1c>
    80000170:	30301a63          	bne	x0,x3,80000484 <fail>

0000000080000174 <test_5>:
    80000174:	00500193          	addi	x3,x0,5
    80000178:	00100093          	addi	x1,x0,1
    8000017c:	00000113          	addi	x2,x0,0
    80000180:	0020e463          	bltu	x1,x2,80000188 <test_5+0x14>
    80000184:	00301463          	bne	x0,x3,8000018c <test_5+0x18>
    80000188:	2e301e63          	bne	x0,x3,80000484 <fail>
    8000018c:	fe20eee3          	bltu	x1,x2,80000188 <test_5+0x14>

0000000080000190 <test_6>:
    80000190:	00600193          	addi	x3,x0,6
    80000194:	0010009b          	addiw	x1,x0,1
    80000198:	02009093          	slli	x1,x1,0x20
    8000019c:	fff08093          	addi	x1,x1,-1
    800001a0:	0010011b          	addiw	x2,x0,1
    800001a4:	02011113          	slli	x2,x2,0x20
    800001a8:	ffe10113          	addi	x2,x2,-2
    800001ac:	0020e463          	bltu	x1,x2,800001b4 <test_6+0x24>
    800001b0:	00301463          	bne	x0,x3,800001b8 <test_6+0x28>
    800001b4:	2c301863          	bne	x0,x3,80000484 <fail>
    800001b8:	fe20eee3          	bltu	x1,x2,800001b4 <test_6+0x24>

00000000800001bc <test_7>:
    800001bc:	00700193          	addi	x3,x0,7
    800001c0:	0010009b          	addiw	x1,x0,1
    800001c4:	02009093          	slli	x1,x1,0x20
    800001c8:	fff08093          	addi	x1,x1,-1
    800001cc:	00000113          	addi	x2,x0,0
    800001d0:	0020e463          	bltu	x1,x2,800001d8 <test_7+0x1c>
    800001d4:	00301463          	bne	x0,x3,800001dc <test_7+0x20>
    800001d8:	2a301663          	bne	x0,x3,80000484 <fail>
    800001dc:	fe20eee3          	bltu	x1,x2,800001d8 <test_7+0x1c>

00000000800001e0 <test_8>:
    800001e0:	00800193          	addi	x3,x0,8
    800001e4:	0010009b          	addiw	x1,x0,1
    800001e8:	01f09093          	slli	x1,x1,0x1f
    800001ec:	80000137          	lui	x2,0x80000
    800001f0:	fff1011b          	addiw	x2,x2,-1
    800001f4:	0020e463          	bltu	x1,x2,800001fc <test_8+0x1c>
    800001f8:	00301463          	bne	x0,x3,80000200 <test_8+0x20>
    800001fc:	28301463          	bne	x0,x3,80000484 <fail>
    80000200:	fe20eee3          	bltu	x1,x2,800001fc <test_8+0x1c>

0000000080000204 <test_9>:
    80000204:	00900193          	addi	x3,x0,9
    80000208:	00000213          	addi	x4,x0,0
    8000020c:	00f0009b          	addiw	x1,x0,15
    80000210:	01c09093          	slli	x1,x1,0x1c
    80000214:	00f0011b          	addiw	x2,x0,15
    80000218:	01c11113          	slli	x2,x2,0x1c
    8000021c:	fff10113          	addi	x2,x2,-1 # ffffffff7fffffff <_end+0xfffffffeffffdfff>
    80000220:	2620e263          	bltu	x1,x2,80000484 <fail>
    80000224:	00120213          	addi	x4,x4,1 # 1 <_start-0x7fffffff>
    80000228:	00200293          	addi	x5,x0,2
    8000022c:	fe5210e3          	bne	x4,x5,8000020c <test_9+0x8>

0000000080000230 <test_10>:
    80000230:	00a00193          	addi	x3,x0,10
    80000234:	00000213          	addi	x4,x0,0
    80000238:	00f0009b          	addiw	x1,x0,15
    8000023c:	01c09093          	slli	x1,x1,0x1c
    80000240:	00f0011b          	addiw	x2,x0,15
    80000244:	01c11113          	slli	x2,x2,0x1c
    80000248:	fff10113          	addi	x2,x2,-1
    8000024c:	00000013          	addi	x0,x0,0
    80000250:	2220ea63          	bltu	x1,x2,80000484 <fail>
    80000254:	00120213          	addi	x4,x4,1 # 1 <_start-0x7fffffff>
    80000258:	00200293          	addi	x5,x0,2
    8000025c:	fc521ee3          	bne	x4,x5,80000238 <test_10+0x8>

0000000080000260 <test_11>:
    80000260:	00b00193          	addi	x3,x0,11
    80000264:	00000213          	addi	x4,x0,0
    80000268:	00f0009b          	addiw	x1,x0,15
    8000026c:	01c09093          	slli	x1,x1,0x1c
    80000270:	00f0011b          	addiw	x2,x0,15
    80000274:	01c11113          	slli	x2,x2,0x1c
    80000278:	fff10113          	addi	x2,x2,-1
    8000027c:	00000013          	addi	x0,x0,0
    80000280:	00000013          	addi	x0,x0,0
    80000284:	2020e063          	bltu	x1,x2,80000484 <fail>
    80000288:	00120213          	addi	x4,x4,1 # 1 <_start-0x7fffffff>
    8000028c:	00200293          	addi	x5,x0,2
    80000290:	fc521ce3          	bne	x4,x5,80000268 <test_11+0x8>

0000000080000294 <test_12>:
    80000294:	00c00193          	addi	x3,x0,12
    80000298:	00000213          	addi	x4,x0,0
    8000029c:	00f0009b          	addiw	x1,x0,15
    800002a0:	01c09093          	slli	x1,x1,0x1c
    800002a4:	00000013          	addi	x0,x0,0
    800002a8:	00f0011b          	addiw	x2,x0,15
    800002ac:	01c11113          	slli	x2,x2,0x1c
    800002b0:	fff10113          	addi	x2,x2,-1
    800002b4:	1c20e863          	bltu	x1,x2,80000484 <fail>
    800002b8:	00120213          	addi	x4,x4,1 # 1 <_start-0x7fffffff>
    800002bc:	00200293          	addi	x5,x0,2
    800002c0:	fc521ee3          	bne	x4,x5,8000029c <test_12+0x8>

00000000800002c4 <test_13>:
    800002c4:	00d00193          	addi	x3,x0,13
    800002c8:	00000213          	addi	x4,x0,0
    800002cc:	00f0009b          	addiw	x1,x0,15
    800002d0:	01c09093          	slli	x1,x1,0x1c
    800002d4:	00000013          	addi	x0,x0,0
    800002d8:	00f0011b          	addiw	x2,x0,15
    800002dc:	01c11113          	slli	x2,x2,0x1c
    800002e0:	fff10113          	addi	x2,x2,-1
    800002e4:	00000013          	addi	x0,x0,0
    800002e8:	1820ee63          	bltu	x1,x2,80000484 <fail>
    800002ec:	00120213          	addi	x4,x4,1 # 1 <_start-0x7fffffff>
    800002f0:	00200293          	addi	x5,x0,2
    800002f4:	fc521ce3          	bne	x4,x5,800002cc <test_13+0x8>

00000000800002f8 <test_14>:
    800002f8:	00e00193          	addi	x3,x0,14
    800002fc:	00000213          	addi	x4,x0,0
    80000300:	00f0009b          	addiw	x1,x0,15
    80000304:	01c09093          	slli	x1,x1,0x1c
    80000308:	00000013          	addi	x0,x0,0
    8000030c:	00000013          	addi	x0,x0,0
    80000310:	00f0011b          	addiw	x2,x0,15
    80000314:	01c11113          	slli	x2,x2,0x1c
    80000318:	fff10113          	addi	x2,x2,-1
    8000031c:	1620e463          	bltu	x1,x2,80000484 <fail>
    80000320:	00120213          	addi	x4,x4,1 # 1 <_start-0x7fffffff>
    80000324:	00200293          	addi	x5,x0,2
    80000328:	fc521ce3          	bne	x4,x5,80000300 <test_14+0x8>

000000008000032c <test_15>:
    8000032c:	00f00193          	addi	x3,x0,15
    80000330:	00000213          	addi	x4,x0,0
    80000334:	00f0009b          	addiw	x1,x0,15
    80000338:	01c09093          	slli	x1,x1,0x1c
    8000033c:	00f0011b          	addiw	x2,x0,15
    80000340:	01c11113          	slli	x2,x2,0x1c
    80000344:	fff10113          	addi	x2,x2,-1
    80000348:	1220ee63          	bltu	x1,x2,80000484 <fail>
    8000034c:	00120213          	addi	x4,x4,1 # 1 <_start-0x7fffffff>
    80000350:	00200293          	addi	x5,x0,2
    80000354:	fe5210e3          	bne	x4,x5,80000334 <test_15+0x8>

0000000080000358 <test_16>:
    80000358:	01000193          	addi	x3,x0,16
    8000035c:	00000213          	addi	x4,x0,0
    80000360:	00f0009b          	addiw	x1,x0,15
    80000364:	01c09093          	slli	x1,x1,0x1c
    80000368:	00f0011b          	addiw	x2,x0,15
    8000036c:	01c11113          	slli	x2,x2,0x1c
    80000370:	fff10113          	addi	x2,x2,-1
    80000374:	00000013          	addi	x0,x0,0
    80000378:	1020e663          	bltu	x1,x2,80000484 <fail>
    8000037c:	00120213          	addi	x4,x4,1 # 1 <_start-0x7fffffff>
    80000380:	00200293          	addi	x5,x0,2
    80000384:	fc521ee3          	bne	x4,x5,80000360 <test_16+0x8>

0000000080000388 <test_17>:
    80000388:	01100193          	addi	x3,x0,17
    8000038c:	00000213          	addi	x4,x0,0
    80000390:	00f0009b          	addiw	x1,x0,15
    80000394:	01c09093          	slli	x1,x1,0x1c
    80000398:	00f0011b          	addiw	x2,x0,15
    8000039c:	01c11113          	slli	x2,x2,0x1c
    800003a0:	fff10113          	addi	x2,x2,-1
    800003a4:	00000013          	addi	x0,x0,0
    800003a8:	00000013          	addi	x0,x0,0
    800003ac:	0c20ec63          	bltu	x1,x2,80000484 <fail>
    800003b0:	00120213          	addi	x4,x4,1 # 1 <_start-0x7fffffff>
    800003b4:	00200293          	addi	x5,x0,2
    800003b8:	fc521ce3          	bne	x4,x5,80000390 <test_17+0x8>

00000000800003bc <test_18>:
    800003bc:	01200193          	addi	x3,x0,18
    800003c0:	00000213          	addi	x4,x0,0
    800003c4:	00f0009b          	addiw	x1,x0,15
    800003c8:	01c09093          	slli	x1,x1,0x1c
    800003cc:	00000013          	addi	x0,x0,0
    800003d0:	00f0011b          	addiw	x2,x0,15
    800003d4:	01c11113          	slli	x2,x2,0x1c
    800003d8:	fff10113          	addi	x2,x2,-1
    800003dc:	0a20e463          	bltu	x1,x2,80000484 <fail>
    800003e0:	00120213          	addi	x4,x4,1 # 1 <_start-0x7fffffff>
    800003e4:	00200293          	addi	x5,x0,2
    800003e8:	fc521ee3          	bne	x4,x5,800003c4 <test_18+0x8>

00000000800003ec <test_19>:
    800003ec:	01300193          	addi	x3,x0,19
    800003f0:	00000213          	addi	x4,x0,0
    800003f4:	00f0009b          	addiw	x1,x0,15
    800003f8:	01c09093          	slli	x1,x1,0x1c
    800003fc:	00000013          	addi	x0,x0,0
    80000400:	00f0011b          	addiw	x2,x0,15
    80000404:	01c11113          	slli	x2,x2,0x1c
    80000408:	fff10113          	addi	x2,x2,-1
    8000040c:	00000013          	addi	x0,x0,0
    80000410:	0620ea63          	bltu	x1,x2,80000484 <fail>
    80000414:	00120213          	addi	x4,x4,1 # 1 <_start-0x7fffffff>
    80000418:	00200293          	addi	x5,x0,2
    8000041c:	fc521ce3          	bne	x4,x5,800003f4 <test_19+0x8>

0000000080000420 <test_20>:
    80000420:	01400193          	addi	x3,x0,20
    80000424:	00000213          	addi	x4,x0,0
    80000428:	00f0009b          	addiw	x1,x0,15
    8000042c:	01c09093          	slli	x1,x1,0x1c
    80000430:	00000013          	addi	x0,x0,0
    80000434:	00000013          	addi	x0,x0,0
    80000438:	00f0011b          	addiw	x2,x0,15
    8000043c:	01c11113          	slli	x2,x2,0x1c
    80000440:	fff10113          	addi	x2,x2,-1
    80000444:	0420e063          	bltu	x1,x2,80000484 <fail>
    80000448:	00120213          	addi	x4,x4,1 # 1 <_start-0x7fffffff>
    8000044c:	00200293          	addi	x5,x0,2
    80000450:	fc521ce3          	bne	x4,x5,80000428 <test_20+0x8>

0000000080000454 <test_21>:
    80000454:	00100093          	addi	x1,x0,1
    80000458:	00106a63          	bltu	x0,x1,8000046c <test_21+0x18>
    8000045c:	00108093          	addi	x1,x1,1
    80000460:	00108093          	addi	x1,x1,1
    80000464:	00108093          	addi	x1,x1,1
    80000468:	00108093          	addi	x1,x1,1
    8000046c:	00108093          	addi	x1,x1,1
    80000470:	00108093          	addi	x1,x1,1
    80000474:	00300e93          	addi	x29,x0,3
    80000478:	01500193          	addi	x3,x0,21
    8000047c:	01d09463          	bne	x1,x29,80000484 <fail>
    80000480:	00301c63          	bne	x0,x3,80000498 <pass>

0000000080000484 <fail>:
    80000484:	0ff0000f          	fence	iorw,iorw
    80000488:	00018063          	beq	x3,x0,80000488 <fail+0x4>
    8000048c:	00119193          	slli	x3,x3,0x1
    80000490:	0011e193          	ori	x3,x3,1
    80000494:	00000073          	ecall

0000000080000498 <pass>:
    80000498:	0ff0000f          	fence	iorw,iorw
    8000049c:	00100193          	addi	x3,x0,1
    800004a0:	00000073          	ecall
    800004a4:	c0001073          	unimp
	...
