
rv64ui-p-sra:     file format elf64-littleriscv


Disassembly of section .text.init:

0000000080000000 <_start>:
    80000000:	04c0006f          	jal	x0,8000004c <reset_vector>

0000000080000004 <trap_vector>:
    80000004:	34202f73          	csrrs	x30,mcause,x0
    80000008:	00800f93          	addi	x31,x0,8
    8000000c:	03ff0a63          	beq	x30,x31,80000040 <write_tohost>
    80000010:	00900f93          	addi	x31,x0,9
    80000014:	03ff0663          	beq	x30,x31,80000040 <write_tohost>
    80000018:	00b00f93          	addi	x31,x0,11
    8000001c:	03ff0263          	beq	x30,x31,80000040 <write_tohost>
    80000020:	80000f17          	auipc	x30,0x80000
    80000024:	fe0f0f13          	addi	x30,x30,-32 # 0 <_start-0x80000000>
    80000028:	000f0463          	beq	x30,x0,80000030 <trap_vector+0x2c>
    8000002c:	000f0067          	jalr	x0,0(x30)
    80000030:	34202f73          	csrrs	x30,mcause,x0
    80000034:	000f5463          	bge	x30,x0,8000003c <handle_exception>
    80000038:	0040006f          	jal	x0,8000003c <handle_exception>

000000008000003c <handle_exception>:
    8000003c:	5391e193          	ori	x3,x3,1337

0000000080000040 <write_tohost>:
    80000040:	00001f17          	auipc	x30,0x1
    80000044:	fc3f2023          	sw	x3,-64(x30) # 80001000 <tohost>
    80000048:	ff9ff06f          	jal	x0,80000040 <write_tohost>

000000008000004c <reset_vector>:
    8000004c:	f1402573          	csrrs	x10,mhartid,x0
    80000050:	00051063          	bne	x10,x0,80000050 <reset_vector+0x4>
    80000054:	00000297          	auipc	x5,0x0
    80000058:	01028293          	addi	x5,x5,16 # 80000064 <reset_vector+0x18>
    8000005c:	30529073          	csrrw	x0,mtvec,x5
    80000060:	18005073          	csrrwi	x0,sptbr,0
    80000064:	00000297          	auipc	x5,0x0
    80000068:	01c28293          	addi	x5,x5,28 # 80000080 <reset_vector+0x34>
    8000006c:	30529073          	csrrw	x0,mtvec,x5
    80000070:	fff00293          	addi	x5,x0,-1
    80000074:	3b029073          	csrrw	x0,pmpaddr0,x5
    80000078:	01f00293          	addi	x5,x0,31
    8000007c:	3a029073          	csrrw	x0,pmpcfg0,x5
    80000080:	00000297          	auipc	x5,0x0
    80000084:	01828293          	addi	x5,x5,24 # 80000098 <reset_vector+0x4c>
    80000088:	30529073          	csrrw	x0,mtvec,x5
    8000008c:	30205073          	csrrwi	x0,medeleg,0
    80000090:	30305073          	csrrwi	x0,mideleg,0
    80000094:	30405073          	csrrwi	x0,mie,0
    80000098:	00000193          	addi	x3,x0,0
    8000009c:	00000297          	auipc	x5,0x0
    800000a0:	f6828293          	addi	x5,x5,-152 # 80000004 <trap_vector>
    800000a4:	30529073          	csrrw	x0,mtvec,x5
    800000a8:	00100513          	addi	x10,x0,1
    800000ac:	01f51513          	slli	x10,x10,0x1f
    800000b0:	00055863          	bge	x10,x0,800000c0 <reset_vector+0x74>
    800000b4:	0ff0000f          	fence	iorw,iorw
    800000b8:	00100193          	addi	x3,x0,1
    800000bc:	00000073          	ecall
    800000c0:	80000297          	auipc	x5,0x80000
    800000c4:	f4028293          	addi	x5,x5,-192 # 0 <_start-0x80000000>
    800000c8:	00028e63          	beq	x5,x0,800000e4 <reset_vector+0x98>
    800000cc:	10529073          	csrrw	x0,stvec,x5
    800000d0:	0000b2b7          	lui	x5,0xb
    800000d4:	1092829b          	addiw	x5,x5,265
    800000d8:	30229073          	csrrw	x0,medeleg,x5
    800000dc:	30202373          	csrrs	x6,medeleg,x0
    800000e0:	f4629ee3          	bne	x5,x6,8000003c <handle_exception>
    800000e4:	30005073          	csrrwi	x0,mstatus,0
    800000e8:	00000297          	auipc	x5,0x0
    800000ec:	01428293          	addi	x5,x5,20 # 800000fc <test_2>
    800000f0:	34129073          	csrrw	x0,mepc,x5
    800000f4:	f1402573          	csrrs	x10,mhartid,x0
    800000f8:	30200073          	mret

00000000800000fc <test_2>:
    800000fc:	800000b7          	lui	x1,0x80000
    80000100:	00000113          	addi	x2,x0,0
    80000104:	4020df33          	sra	x30,x1,x2
    80000108:	80000eb7          	lui	x29,0x80000
    8000010c:	00200193          	addi	x3,x0,2
    80000110:	59df1463          	bne	x30,x29,80000698 <fail>

0000000080000114 <test_3>:
    80000114:	800000b7          	lui	x1,0x80000
    80000118:	00100113          	addi	x2,x0,1
    8000011c:	4020df33          	sra	x30,x1,x2
    80000120:	c0000eb7          	lui	x29,0xc0000
    80000124:	00300193          	addi	x3,x0,3
    80000128:	57df1863          	bne	x30,x29,80000698 <fail>

000000008000012c <test_4>:
    8000012c:	800000b7          	lui	x1,0x80000
    80000130:	00700113          	addi	x2,x0,7
    80000134:	4020df33          	sra	x30,x1,x2
    80000138:	ff000eb7          	lui	x29,0xff000
    8000013c:	00400193          	addi	x3,x0,4
    80000140:	55df1c63          	bne	x30,x29,80000698 <fail>

0000000080000144 <test_5>:
    80000144:	800000b7          	lui	x1,0x80000
    80000148:	00e00113          	addi	x2,x0,14
    8000014c:	4020df33          	sra	x30,x1,x2
    80000150:	fffe0eb7          	lui	x29,0xfffe0
    80000154:	00500193          	addi	x3,x0,5
    80000158:	55df1063          	bne	x30,x29,80000698 <fail>

000000008000015c <test_6>:
    8000015c:	800000b7          	lui	x1,0x80000
    80000160:	0010809b          	addiw	x1,x1,1
    80000164:	01f00113          	addi	x2,x0,31
    80000168:	4020df33          	sra	x30,x1,x2
    8000016c:	fff00e93          	addi	x29,x0,-1
    80000170:	00600193          	addi	x3,x0,6
    80000174:	53df1263          	bne	x30,x29,80000698 <fail>

0000000080000178 <test_7>:
    80000178:	800000b7          	lui	x1,0x80000
    8000017c:	fff0809b          	addiw	x1,x1,-1
    80000180:	00000113          	addi	x2,x0,0
    80000184:	4020df33          	sra	x30,x1,x2
    80000188:	80000eb7          	lui	x29,0x80000
    8000018c:	fffe8e9b          	addiw	x29,x29,-1
    80000190:	00700193          	addi	x3,x0,7
    80000194:	51df1263          	bne	x30,x29,80000698 <fail>

0000000080000198 <test_8>:
    80000198:	800000b7          	lui	x1,0x80000
    8000019c:	fff0809b          	addiw	x1,x1,-1
    800001a0:	00100113          	addi	x2,x0,1
    800001a4:	4020df33          	sra	x30,x1,x2
    800001a8:	40000eb7          	lui	x29,0x40000
    800001ac:	fffe8e9b          	addiw	x29,x29,-1
    800001b0:	00800193          	addi	x3,x0,8
    800001b4:	4fdf1263          	bne	x30,x29,80000698 <fail>

00000000800001b8 <test_9>:
    800001b8:	800000b7          	lui	x1,0x80000
    800001bc:	fff0809b          	addiw	x1,x1,-1
    800001c0:	00700113          	addi	x2,x0,7
    800001c4:	4020df33          	sra	x30,x1,x2
    800001c8:	01000eb7          	lui	x29,0x1000
    800001cc:	fffe8e9b          	addiw	x29,x29,-1
    800001d0:	00900193          	addi	x3,x0,9
    800001d4:	4ddf1263          	bne	x30,x29,80000698 <fail>

00000000800001d8 <test_10>:
    800001d8:	800000b7          	lui	x1,0x80000
    800001dc:	fff0809b          	addiw	x1,x1,-1
    800001e0:	00e00113          	addi	x2,x0,14
    800001e4:	4020df33          	sra	x30,x1,x2
    800001e8:	00020eb7          	lui	x29,0x20
    800001ec:	fffe8e9b          	addiw	x29,x29,-1
    800001f0:	00a00193          	addi	x3,x0,10
    800001f4:	4bdf1263          	bne	x30,x29,80000698 <fail>

00000000800001f8 <test_11>:
    800001f8:	800000b7          	lui	x1,0x80000
    800001fc:	fff0809b          	addiw	x1,x1,-1
    80000200:	01f00113          	addi	x2,x0,31
    80000204:	4020df33          	sra	x30,x1,x2
    80000208:	00000e93          	addi	x29,x0,0
    8000020c:	00b00193          	addi	x3,x0,11
    80000210:	49df1463          	bne	x30,x29,80000698 <fail>

0000000080000214 <test_12>:
    80000214:	818180b7          	lui	x1,0x81818
    80000218:	1810809b          	addiw	x1,x1,385
    8000021c:	00000113          	addi	x2,x0,0
    80000220:	4020df33          	sra	x30,x1,x2
    80000224:	81818eb7          	lui	x29,0x81818
    80000228:	181e8e9b          	addiw	x29,x29,385
    8000022c:	00c00193          	addi	x3,x0,12
    80000230:	47df1463          	bne	x30,x29,80000698 <fail>

0000000080000234 <test_13>:
    80000234:	818180b7          	lui	x1,0x81818
    80000238:	1810809b          	addiw	x1,x1,385
    8000023c:	00100113          	addi	x2,x0,1
    80000240:	4020df33          	sra	x30,x1,x2
    80000244:	c0c0ceb7          	lui	x29,0xc0c0c
    80000248:	0c0e8e9b          	addiw	x29,x29,192
    8000024c:	00d00193          	addi	x3,x0,13
    80000250:	45df1463          	bne	x30,x29,80000698 <fail>

0000000080000254 <test_14>:
    80000254:	818180b7          	lui	x1,0x81818
    80000258:	1810809b          	addiw	x1,x1,385
    8000025c:	00700113          	addi	x2,x0,7
    80000260:	4020df33          	sra	x30,x1,x2
    80000264:	ff030eb7          	lui	x29,0xff030
    80000268:	303e8e9b          	addiw	x29,x29,771
    8000026c:	00e00193          	addi	x3,x0,14
    80000270:	43df1463          	bne	x30,x29,80000698 <fail>

0000000080000274 <test_15>:
    80000274:	818180b7          	lui	x1,0x81818
    80000278:	1810809b          	addiw	x1,x1,385
    8000027c:	00e00113          	addi	x2,x0,14
    80000280:	4020df33          	sra	x30,x1,x2
    80000284:	fffe0eb7          	lui	x29,0xfffe0
    80000288:	606e8e9b          	addiw	x29,x29,1542
    8000028c:	00f00193          	addi	x3,x0,15
    80000290:	41df1463          	bne	x30,x29,80000698 <fail>

0000000080000294 <test_16>:
    80000294:	818180b7          	lui	x1,0x81818
    80000298:	1810809b          	addiw	x1,x1,385
    8000029c:	01f00113          	addi	x2,x0,31
    800002a0:	4020df33          	sra	x30,x1,x2
    800002a4:	fff00e93          	addi	x29,x0,-1
    800002a8:	01000193          	addi	x3,x0,16
    800002ac:	3fdf1663          	bne	x30,x29,80000698 <fail>

00000000800002b0 <test_17>:
    800002b0:	818180b7          	lui	x1,0x81818
    800002b4:	1810809b          	addiw	x1,x1,385
    800002b8:	fc000113          	addi	x2,x0,-64
    800002bc:	4020df33          	sra	x30,x1,x2
    800002c0:	81818eb7          	lui	x29,0x81818
    800002c4:	181e8e9b          	addiw	x29,x29,385
    800002c8:	01100193          	addi	x3,x0,17
    800002cc:	3ddf1663          	bne	x30,x29,80000698 <fail>

00000000800002d0 <test_18>:
    800002d0:	818180b7          	lui	x1,0x81818
    800002d4:	1810809b          	addiw	x1,x1,385
    800002d8:	fc100113          	addi	x2,x0,-63
    800002dc:	4020df33          	sra	x30,x1,x2
    800002e0:	c0c0ceb7          	lui	x29,0xc0c0c
    800002e4:	0c0e8e9b          	addiw	x29,x29,192
    800002e8:	01200193          	addi	x3,x0,18
    800002ec:	3bdf1663          	bne	x30,x29,80000698 <fail>

00000000800002f0 <test_19>:
    800002f0:	818180b7          	lui	x1,0x81818
    800002f4:	1810809b          	addiw	x1,x1,385
    800002f8:	fc700113          	addi	x2,x0,-57
    800002fc:	4020df33          	sra	x30,x1,x2
    80000300:	ff030eb7          	lui	x29,0xff030
    80000304:	303e8e9b          	addiw	x29,x29,771
    80000308:	01300193          	addi	x3,x0,19
    8000030c:	39df1663          	bne	x30,x29,80000698 <fail>

0000000080000310 <test_20>:
    80000310:	818180b7          	lui	x1,0x81818
    80000314:	1810809b          	addiw	x1,x1,385
    80000318:	fce00113          	addi	x2,x0,-50
    8000031c:	4020df33          	sra	x30,x1,x2
    80000320:	fffe0eb7          	lui	x29,0xfffe0
    80000324:	606e8e9b          	addiw	x29,x29,1542
    80000328:	01400193          	addi	x3,x0,20
    8000032c:	37df1663          	bne	x30,x29,80000698 <fail>

0000000080000330 <test_21>:
    80000330:	818180b7          	lui	x1,0x81818
    80000334:	1810809b          	addiw	x1,x1,385
    80000338:	fff00113          	addi	x2,x0,-1
    8000033c:	4020df33          	sra	x30,x1,x2
    80000340:	fff00e93          	addi	x29,x0,-1
    80000344:	01500193          	addi	x3,x0,21
    80000348:	35df1863          	bne	x30,x29,80000698 <fail>

000000008000034c <test_22>:
    8000034c:	800000b7          	lui	x1,0x80000
    80000350:	00700113          	addi	x2,x0,7
    80000354:	4020d0b3          	sra	x1,x1,x2
    80000358:	ff000eb7          	lui	x29,0xff000
    8000035c:	01600193          	addi	x3,x0,22
    80000360:	33d09c63          	bne	x1,x29,80000698 <fail>

0000000080000364 <test_23>:
    80000364:	800000b7          	lui	x1,0x80000
    80000368:	00e00113          	addi	x2,x0,14
    8000036c:	4020d133          	sra	x2,x1,x2
    80000370:	fffe0eb7          	lui	x29,0xfffe0
    80000374:	01700193          	addi	x3,x0,23
    80000378:	33d11063          	bne	x2,x29,80000698 <fail>

000000008000037c <test_24>:
    8000037c:	00700093          	addi	x1,x0,7
    80000380:	4010d0b3          	sra	x1,x1,x1
    80000384:	00000e93          	addi	x29,x0,0
    80000388:	01800193          	addi	x3,x0,24
    8000038c:	31d09663          	bne	x1,x29,80000698 <fail>

0000000080000390 <test_25>:
    80000390:	00000213          	addi	x4,x0,0
    80000394:	800000b7          	lui	x1,0x80000
    80000398:	00700113          	addi	x2,x0,7
    8000039c:	4020df33          	sra	x30,x1,x2
    800003a0:	000f0313          	addi	x6,x30,0
    800003a4:	00120213          	addi	x4,x4,1 # 1 <_start-0x7fffffff>
    800003a8:	00200293          	addi	x5,x0,2
    800003ac:	fe5214e3          	bne	x4,x5,80000394 <test_25+0x4>
    800003b0:	ff000eb7          	lui	x29,0xff000
    800003b4:	01900193          	addi	x3,x0,25
    800003b8:	2fd31063          	bne	x6,x29,80000698 <fail>

00000000800003bc <test_26>:
    800003bc:	00000213          	addi	x4,x0,0
    800003c0:	800000b7          	lui	x1,0x80000
    800003c4:	00e00113          	addi	x2,x0,14
    800003c8:	4020df33          	sra	x30,x1,x2
    800003cc:	00000013          	addi	x0,x0,0
    800003d0:	000f0313          	addi	x6,x30,0
    800003d4:	00120213          	addi	x4,x4,1 # 1 <_start-0x7fffffff>
    800003d8:	00200293          	addi	x5,x0,2
    800003dc:	fe5212e3          	bne	x4,x5,800003c0 <test_26+0x4>
    800003e0:	fffe0eb7          	lui	x29,0xfffe0
    800003e4:	01a00193          	addi	x3,x0,26
    800003e8:	2bd31863          	bne	x6,x29,80000698 <fail>

00000000800003ec <test_27>:
    800003ec:	00000213          	addi	x4,x0,0
    800003f0:	800000b7          	lui	x1,0x80000
    800003f4:	01f00113          	addi	x2,x0,31
    800003f8:	4020df33          	sra	x30,x1,x2
    800003fc:	00000013          	addi	x0,x0,0
    80000400:	00000013          	addi	x0,x0,0
    80000404:	000f0313          	addi	x6,x30,0
    80000408:	00120213          	addi	x4,x4,1 # 1 <_start-0x7fffffff>
    8000040c:	00200293          	addi	x5,x0,2
    80000410:	fe5210e3          	bne	x4,x5,800003f0 <test_27+0x4>
    80000414:	fff00e93          	addi	x29,x0,-1
    80000418:	01b00193          	addi	x3,x0,27
    8000041c:	27d31e63          	bne	x6,x29,80000698 <fail>

0000000080000420 <test_28>:
    80000420:	00000213          	addi	x4,x0,0
    80000424:	800000b7          	lui	x1,0x80000
    80000428:	00700113          	addi	x2,x0,7
    8000042c:	4020df33          	sra	x30,x1,x2
    80000430:	00120213          	addi	x4,x4,1 # 1 <_start-0x7fffffff>
    80000434:	00200293          	addi	x5,x0,2
    80000438:	fe5216e3          	bne	x4,x5,80000424 <test_28+0x4>
    8000043c:	ff000eb7          	lui	x29,0xff000
    80000440:	01c00193          	addi	x3,x0,28
    80000444:	25df1a63          	bne	x30,x29,80000698 <fail>

0000000080000448 <test_29>:
    80000448:	00000213          	addi	x4,x0,0
    8000044c:	800000b7          	lui	x1,0x80000
    80000450:	00e00113          	addi	x2,x0,14
    80000454:	00000013          	addi	x0,x0,0
    80000458:	4020df33          	sra	x30,x1,x2
    8000045c:	00120213          	addi	x4,x4,1 # 1 <_start-0x7fffffff>
    80000460:	00200293          	addi	x5,x0,2
    80000464:	fe5214e3          	bne	x4,x5,8000044c <test_29+0x4>
    80000468:	fffe0eb7          	lui	x29,0xfffe0
    8000046c:	01d00193          	addi	x3,x0,29
    80000470:	23df1463          	bne	x30,x29,80000698 <fail>

0000000080000474 <test_30>:
    80000474:	00000213          	addi	x4,x0,0
    80000478:	800000b7          	lui	x1,0x80000
    8000047c:	01f00113          	addi	x2,x0,31
    80000480:	00000013          	addi	x0,x0,0
    80000484:	00000013          	addi	x0,x0,0
    80000488:	4020df33          	sra	x30,x1,x2
    8000048c:	00120213          	addi	x4,x4,1 # 1 <_start-0x7fffffff>
    80000490:	00200293          	addi	x5,x0,2
    80000494:	fe5212e3          	bne	x4,x5,80000478 <test_30+0x4>
    80000498:	fff00e93          	addi	x29,x0,-1
    8000049c:	01e00193          	addi	x3,x0,30
    800004a0:	1fdf1c63          	bne	x30,x29,80000698 <fail>

00000000800004a4 <test_31>:
    800004a4:	00000213          	addi	x4,x0,0
    800004a8:	800000b7          	lui	x1,0x80000
    800004ac:	00000013          	addi	x0,x0,0
    800004b0:	00700113          	addi	x2,x0,7
    800004b4:	4020df33          	sra	x30,x1,x2
    800004b8:	00120213          	addi	x4,x4,1 # 1 <_start-0x7fffffff>
    800004bc:	00200293          	addi	x5,x0,2
    800004c0:	fe5214e3          	bne	x4,x5,800004a8 <test_31+0x4>
    800004c4:	ff000eb7          	lui	x29,0xff000
    800004c8:	01f00193          	addi	x3,x0,31
    800004cc:	1ddf1663          	bne	x30,x29,80000698 <fail>

00000000800004d0 <test_32>:
    800004d0:	00000213          	addi	x4,x0,0
    800004d4:	800000b7          	lui	x1,0x80000
    800004d8:	00000013          	addi	x0,x0,0
    800004dc:	00e00113          	addi	x2,x0,14
    800004e0:	00000013          	addi	x0,x0,0
    800004e4:	4020df33          	sra	x30,x1,x2
    800004e8:	00120213          	addi	x4,x4,1 # 1 <_start-0x7fffffff>
    800004ec:	00200293          	addi	x5,x0,2
    800004f0:	fe5212e3          	bne	x4,x5,800004d4 <test_32+0x4>
    800004f4:	fffe0eb7          	lui	x29,0xfffe0
    800004f8:	02000193          	addi	x3,x0,32
    800004fc:	19df1e63          	bne	x30,x29,80000698 <fail>

0000000080000500 <test_33>:
    80000500:	00000213          	addi	x4,x0,0
    80000504:	800000b7          	lui	x1,0x80000
    80000508:	00000013          	addi	x0,x0,0
    8000050c:	00000013          	addi	x0,x0,0
    80000510:	01f00113          	addi	x2,x0,31
    80000514:	4020df33          	sra	x30,x1,x2
    80000518:	00120213          	addi	x4,x4,1 # 1 <_start-0x7fffffff>
    8000051c:	00200293          	addi	x5,x0,2
    80000520:	fe5212e3          	bne	x4,x5,80000504 <test_33+0x4>
    80000524:	fff00e93          	addi	x29,x0,-1
    80000528:	02100193          	addi	x3,x0,33
    8000052c:	17df1663          	bne	x30,x29,80000698 <fail>

0000000080000530 <test_34>:
    80000530:	00000213          	addi	x4,x0,0
    80000534:	00700113          	addi	x2,x0,7
    80000538:	800000b7          	lui	x1,0x80000
    8000053c:	4020df33          	sra	x30,x1,x2
    80000540:	00120213          	addi	x4,x4,1 # 1 <_start-0x7fffffff>
    80000544:	00200293          	addi	x5,x0,2
    80000548:	fe5216e3          	bne	x4,x5,80000534 <test_34+0x4>
    8000054c:	ff000eb7          	lui	x29,0xff000
    80000550:	02200193          	addi	x3,x0,34
    80000554:	15df1263          	bne	x30,x29,80000698 <fail>

0000000080000558 <test_35>:
    80000558:	00000213          	addi	x4,x0,0
    8000055c:	00e00113          	addi	x2,x0,14
    80000560:	800000b7          	lui	x1,0x80000
    80000564:	00000013          	addi	x0,x0,0
    80000568:	4020df33          	sra	x30,x1,x2
    8000056c:	00120213          	addi	x4,x4,1 # 1 <_start-0x7fffffff>
    80000570:	00200293          	addi	x5,x0,2
    80000574:	fe5214e3          	bne	x4,x5,8000055c <test_35+0x4>
    80000578:	fffe0eb7          	lui	x29,0xfffe0
    8000057c:	02300193          	addi	x3,x0,35
    80000580:	11df1c63          	bne	x30,x29,80000698 <fail>

0000000080000584 <test_36>:
    80000584:	00000213          	addi	x4,x0,0
    80000588:	01f00113          	addi	x2,x0,31
    8000058c:	800000b7          	lui	x1,0x80000
    80000590:	00000013          	addi	x0,x0,0
    80000594:	00000013          	addi	x0,x0,0
    80000598:	4020df33          	sra	x30,x1,x2
    8000059c:	00120213          	addi	x4,x4,1 # 1 <_start-0x7fffffff>
    800005a0:	00200293          	addi	x5,x0,2
    800005a4:	fe5212e3          	bne	x4,x5,80000588 <test_36+0x4>
    800005a8:	fff00e93          	addi	x29,x0,-1
    800005ac:	02400193          	addi	x3,x0,36
    800005b0:	0fdf1463          	bne	x30,x29,80000698 <fail>

00000000800005b4 <test_37>:
    800005b4:	00000213          	addi	x4,x0,0
    800005b8:	00700113          	addi	x2,x0,7
    800005bc:	00000013          	addi	x0,x0,0
    800005c0:	800000b7          	lui	x1,0x80000
    800005c4:	4020df33          	sra	x30,x1,x2
    800005c8:	00120213          	addi	x4,x4,1 # 1 <_start-0x7fffffff>
    800005cc:	00200293          	addi	x5,x0,2
    800005d0:	fe5214e3          	bne	x4,x5,800005b8 <test_37+0x4>
    800005d4:	ff000eb7          	lui	x29,0xff000
    800005d8:	02500193          	addi	x3,x0,37
    800005dc:	0bdf1e63          	bne	x30,x29,80000698 <fail>

00000000800005e0 <test_38>:
    800005e0:	00000213          	addi	x4,x0,0
    800005e4:	00e00113          	addi	x2,x0,14
    800005e8:	00000013          	addi	x0,x0,0
    800005ec:	800000b7          	lui	x1,0x80000
    800005f0:	00000013          	addi	x0,x0,0
    800005f4:	4020df33          	sra	x30,x1,x2
    800005f8:	00120213          	addi	x4,x4,1 # 1 <_start-0x7fffffff>
    800005fc:	00200293          	addi	x5,x0,2
    80000600:	fe5212e3          	bne	x4,x5,800005e4 <test_38+0x4>
    80000604:	fffe0eb7          	lui	x29,0xfffe0
    80000608:	02600193          	addi	x3,x0,38
    8000060c:	09df1663          	bne	x30,x29,80000698 <fail>

0000000080000610 <test_39>:
    80000610:	00000213          	addi	x4,x0,0
    80000614:	01f00113          	addi	x2,x0,31
    80000618:	00000013          	addi	x0,x0,0
    8000061c:	00000013          	addi	x0,x0,0
    80000620:	800000b7          	lui	x1,0x80000
    80000624:	4020df33          	sra	x30,x1,x2
    80000628:	00120213          	addi	x4,x4,1 # 1 <_start-0x7fffffff>
    8000062c:	00200293          	addi	x5,x0,2
    80000630:	fe5212e3          	bne	x4,x5,80000614 <test_39+0x4>
    80000634:	fff00e93          	addi	x29,x0,-1
    80000638:	02700193          	addi	x3,x0,39
    8000063c:	05df1e63          	bne	x30,x29,80000698 <fail>

0000000080000640 <test_40>:
    80000640:	00f00093          	addi	x1,x0,15
    80000644:	40105133          	sra	x2,x0,x1
    80000648:	00000e93          	addi	x29,x0,0
    8000064c:	02800193          	addi	x3,x0,40
    80000650:	05d11463          	bne	x2,x29,80000698 <fail>

0000000080000654 <test_41>:
    80000654:	02000093          	addi	x1,x0,32
    80000658:	4000d133          	sra	x2,x1,x0
    8000065c:	02000e93          	addi	x29,x0,32
    80000660:	02900193          	addi	x3,x0,41
    80000664:	03d11a63          	bne	x2,x29,80000698 <fail>

0000000080000668 <test_42>:
    80000668:	400050b3          	sra	x1,x0,x0
    8000066c:	00000e93          	addi	x29,x0,0
    80000670:	02a00193          	addi	x3,x0,42
    80000674:	03d09263          	bne	x1,x29,80000698 <fail>

0000000080000678 <test_43>:
    80000678:	40000093          	addi	x1,x0,1024
    8000067c:	00001137          	lui	x2,0x1
    80000680:	8001011b          	addiw	x2,x2,-2048
    80000684:	4020d033          	sra	x0,x1,x2
    80000688:	00000e93          	addi	x29,x0,0
    8000068c:	02b00193          	addi	x3,x0,43
    80000690:	01d01463          	bne	x0,x29,80000698 <fail>
    80000694:	00301c63          	bne	x0,x3,800006ac <pass>

0000000080000698 <fail>:
    80000698:	0ff0000f          	fence	iorw,iorw
    8000069c:	00018063          	beq	x3,x0,8000069c <fail+0x4>
    800006a0:	00119193          	slli	x3,x3,0x1
    800006a4:	0011e193          	ori	x3,x3,1
    800006a8:	00000073          	ecall

00000000800006ac <pass>:
    800006ac:	0ff0000f          	fence	iorw,iorw
    800006b0:	00100193          	addi	x3,x0,1
    800006b4:	00000073          	ecall
    800006b8:	c0001073          	unimp
	...
