
rv64ui-p-srlw:     file format elf64-littleriscv


Disassembly of section .text.init:

0000000080000000 <_start>:
    80000000:	04c0006f          	jal	x0,8000004c <reset_vector>

0000000080000004 <trap_vector>:
    80000004:	34202f73          	csrrs	x30,mcause,x0
    80000008:	00800f93          	addi	x31,x0,8
    8000000c:	03ff0a63          	beq	x30,x31,80000040 <write_tohost>
    80000010:	00900f93          	addi	x31,x0,9
    80000014:	03ff0663          	beq	x30,x31,80000040 <write_tohost>
    80000018:	00b00f93          	addi	x31,x0,11
    8000001c:	03ff0263          	beq	x30,x31,80000040 <write_tohost>
    80000020:	80000f17          	auipc	x30,0x80000
    80000024:	fe0f0f13          	addi	x30,x30,-32 # 0 <_start-0x80000000>
    80000028:	000f0463          	beq	x30,x0,80000030 <trap_vector+0x2c>
    8000002c:	000f0067          	jalr	x0,0(x30)
    80000030:	34202f73          	csrrs	x30,mcause,x0
    80000034:	000f5463          	bge	x30,x0,8000003c <handle_exception>
    80000038:	0040006f          	jal	x0,8000003c <handle_exception>

000000008000003c <handle_exception>:
    8000003c:	5391e193          	ori	x3,x3,1337

0000000080000040 <write_tohost>:
    80000040:	00001f17          	auipc	x30,0x1
    80000044:	fc3f2023          	sw	x3,-64(x30) # 80001000 <tohost>
    80000048:	ff9ff06f          	jal	x0,80000040 <write_tohost>

000000008000004c <reset_vector>:
    8000004c:	f1402573          	csrrs	x10,mhartid,x0
    80000050:	00051063          	bne	x10,x0,80000050 <reset_vector+0x4>
    80000054:	00000297          	auipc	x5,0x0
    80000058:	01028293          	addi	x5,x5,16 # 80000064 <reset_vector+0x18>
    8000005c:	30529073          	csrrw	x0,mtvec,x5
    80000060:	18005073          	csrrwi	x0,sptbr,0
    80000064:	00000297          	auipc	x5,0x0
    80000068:	01c28293          	addi	x5,x5,28 # 80000080 <reset_vector+0x34>
    8000006c:	30529073          	csrrw	x0,mtvec,x5
    80000070:	fff00293          	addi	x5,x0,-1
    80000074:	3b029073          	csrrw	x0,pmpaddr0,x5
    80000078:	01f00293          	addi	x5,x0,31
    8000007c:	3a029073          	csrrw	x0,pmpcfg0,x5
    80000080:	00000297          	auipc	x5,0x0
    80000084:	01828293          	addi	x5,x5,24 # 80000098 <reset_vector+0x4c>
    80000088:	30529073          	csrrw	x0,mtvec,x5
    8000008c:	30205073          	csrrwi	x0,medeleg,0
    80000090:	30305073          	csrrwi	x0,mideleg,0
    80000094:	30405073          	csrrwi	x0,mie,0
    80000098:	00000193          	addi	x3,x0,0
    8000009c:	00000297          	auipc	x5,0x0
    800000a0:	f6828293          	addi	x5,x5,-152 # 80000004 <trap_vector>
    800000a4:	30529073          	csrrw	x0,mtvec,x5
    800000a8:	00100513          	addi	x10,x0,1
    800000ac:	01f51513          	slli	x10,x10,0x1f
    800000b0:	00055863          	bge	x10,x0,800000c0 <reset_vector+0x74>
    800000b4:	0ff0000f          	fence	iorw,iorw
    800000b8:	00100193          	addi	x3,x0,1
    800000bc:	00000073          	ecall
    800000c0:	80000297          	auipc	x5,0x80000
    800000c4:	f4028293          	addi	x5,x5,-192 # 0 <_start-0x80000000>
    800000c8:	00028e63          	beq	x5,x0,800000e4 <reset_vector+0x98>
    800000cc:	10529073          	csrrw	x0,stvec,x5
    800000d0:	0000b2b7          	lui	x5,0xb
    800000d4:	1092829b          	addiw	x5,x5,265
    800000d8:	30229073          	csrrw	x0,medeleg,x5
    800000dc:	30202373          	csrrs	x6,medeleg,x0
    800000e0:	f4629ee3          	bne	x5,x6,8000003c <handle_exception>
    800000e4:	30005073          	csrrwi	x0,mstatus,0
    800000e8:	00000297          	auipc	x5,0x0
    800000ec:	01428293          	addi	x5,x5,20 # 800000fc <test_2>
    800000f0:	34129073          	csrrw	x0,mepc,x5
    800000f4:	f1402573          	csrrs	x10,mhartid,x0
    800000f8:	30200073          	mret

00000000800000fc <test_2>:
    800000fc:	800000b7          	lui	x1,0x80000
    80000100:	00000113          	addi	x2,x0,0
    80000104:	0020df3b          	srlw	x30,x1,x2
    80000108:	80000eb7          	lui	x29,0x80000
    8000010c:	00200193          	addi	x3,x0,2
    80000110:	57df1863          	bne	x30,x29,80000680 <fail>

0000000080000114 <test_3>:
    80000114:	800000b7          	lui	x1,0x80000
    80000118:	00100113          	addi	x2,x0,1
    8000011c:	0020df3b          	srlw	x30,x1,x2
    80000120:	40000eb7          	lui	x29,0x40000
    80000124:	00300193          	addi	x3,x0,3
    80000128:	55df1c63          	bne	x30,x29,80000680 <fail>

000000008000012c <test_4>:
    8000012c:	800000b7          	lui	x1,0x80000
    80000130:	00700113          	addi	x2,x0,7
    80000134:	0020df3b          	srlw	x30,x1,x2
    80000138:	01000eb7          	lui	x29,0x1000
    8000013c:	00400193          	addi	x3,x0,4
    80000140:	55df1063          	bne	x30,x29,80000680 <fail>

0000000080000144 <test_5>:
    80000144:	800000b7          	lui	x1,0x80000
    80000148:	00e00113          	addi	x2,x0,14
    8000014c:	0020df3b          	srlw	x30,x1,x2
    80000150:	00020eb7          	lui	x29,0x20
    80000154:	00500193          	addi	x3,x0,5
    80000158:	53df1463          	bne	x30,x29,80000680 <fail>

000000008000015c <test_6>:
    8000015c:	800000b7          	lui	x1,0x80000
    80000160:	0010809b          	addiw	x1,x1,1
    80000164:	01f00113          	addi	x2,x0,31
    80000168:	0020df3b          	srlw	x30,x1,x2
    8000016c:	00100e93          	addi	x29,x0,1
    80000170:	00600193          	addi	x3,x0,6
    80000174:	51df1663          	bne	x30,x29,80000680 <fail>

0000000080000178 <test_7>:
    80000178:	fff00093          	addi	x1,x0,-1
    8000017c:	00000113          	addi	x2,x0,0
    80000180:	0020df3b          	srlw	x30,x1,x2
    80000184:	fff00e93          	addi	x29,x0,-1
    80000188:	00700193          	addi	x3,x0,7
    8000018c:	4fdf1a63          	bne	x30,x29,80000680 <fail>

0000000080000190 <test_8>:
    80000190:	fff00093          	addi	x1,x0,-1
    80000194:	00100113          	addi	x2,x0,1
    80000198:	0020df3b          	srlw	x30,x1,x2
    8000019c:	80000eb7          	lui	x29,0x80000
    800001a0:	fffe8e9b          	addiw	x29,x29,-1
    800001a4:	00800193          	addi	x3,x0,8
    800001a8:	4ddf1c63          	bne	x30,x29,80000680 <fail>

00000000800001ac <test_9>:
    800001ac:	fff00093          	addi	x1,x0,-1
    800001b0:	00700113          	addi	x2,x0,7
    800001b4:	0020df3b          	srlw	x30,x1,x2
    800001b8:	02000eb7          	lui	x29,0x2000
    800001bc:	fffe8e9b          	addiw	x29,x29,-1
    800001c0:	00900193          	addi	x3,x0,9
    800001c4:	4bdf1e63          	bne	x30,x29,80000680 <fail>

00000000800001c8 <test_10>:
    800001c8:	fff00093          	addi	x1,x0,-1
    800001cc:	00e00113          	addi	x2,x0,14
    800001d0:	0020df3b          	srlw	x30,x1,x2
    800001d4:	00040eb7          	lui	x29,0x40
    800001d8:	fffe8e9b          	addiw	x29,x29,-1
    800001dc:	00a00193          	addi	x3,x0,10
    800001e0:	4bdf1063          	bne	x30,x29,80000680 <fail>

00000000800001e4 <test_11>:
    800001e4:	fff00093          	addi	x1,x0,-1
    800001e8:	01f00113          	addi	x2,x0,31
    800001ec:	0020df3b          	srlw	x30,x1,x2
    800001f0:	00100e93          	addi	x29,x0,1
    800001f4:	00b00193          	addi	x3,x0,11
    800001f8:	49df1463          	bne	x30,x29,80000680 <fail>

00000000800001fc <test_12>:
    800001fc:	212120b7          	lui	x1,0x21212
    80000200:	1210809b          	addiw	x1,x1,289
    80000204:	00000113          	addi	x2,x0,0
    80000208:	0020df3b          	srlw	x30,x1,x2
    8000020c:	21212eb7          	lui	x29,0x21212
    80000210:	121e8e9b          	addiw	x29,x29,289
    80000214:	00c00193          	addi	x3,x0,12
    80000218:	47df1463          	bne	x30,x29,80000680 <fail>

000000008000021c <test_13>:
    8000021c:	212120b7          	lui	x1,0x21212
    80000220:	1210809b          	addiw	x1,x1,289
    80000224:	00100113          	addi	x2,x0,1
    80000228:	0020df3b          	srlw	x30,x1,x2
    8000022c:	10909eb7          	lui	x29,0x10909
    80000230:	090e8e9b          	addiw	x29,x29,144
    80000234:	00d00193          	addi	x3,x0,13
    80000238:	45df1463          	bne	x30,x29,80000680 <fail>

000000008000023c <test_14>:
    8000023c:	212120b7          	lui	x1,0x21212
    80000240:	1210809b          	addiw	x1,x1,289
    80000244:	00700113          	addi	x2,x0,7
    80000248:	0020df3b          	srlw	x30,x1,x2
    8000024c:	00424eb7          	lui	x29,0x424
    80000250:	242e8e9b          	addiw	x29,x29,578
    80000254:	00e00193          	addi	x3,x0,14
    80000258:	43df1463          	bne	x30,x29,80000680 <fail>

000000008000025c <test_15>:
    8000025c:	212120b7          	lui	x1,0x21212
    80000260:	1210809b          	addiw	x1,x1,289
    80000264:	00e00113          	addi	x2,x0,14
    80000268:	0020df3b          	srlw	x30,x1,x2
    8000026c:	00008eb7          	lui	x29,0x8
    80000270:	484e8e9b          	addiw	x29,x29,1156
    80000274:	00f00193          	addi	x3,x0,15
    80000278:	41df1463          	bne	x30,x29,80000680 <fail>

000000008000027c <test_16>:
    8000027c:	212120b7          	lui	x1,0x21212
    80000280:	1210809b          	addiw	x1,x1,289
    80000284:	01f00113          	addi	x2,x0,31
    80000288:	0020df3b          	srlw	x30,x1,x2
    8000028c:	00000e93          	addi	x29,x0,0
    80000290:	01000193          	addi	x3,x0,16
    80000294:	3fdf1663          	bne	x30,x29,80000680 <fail>

0000000080000298 <test_17>:
    80000298:	212120b7          	lui	x1,0x21212
    8000029c:	1210809b          	addiw	x1,x1,289
    800002a0:	fe000113          	addi	x2,x0,-32
    800002a4:	0020df3b          	srlw	x30,x1,x2
    800002a8:	21212eb7          	lui	x29,0x21212
    800002ac:	121e8e9b          	addiw	x29,x29,289
    800002b0:	01100193          	addi	x3,x0,17
    800002b4:	3ddf1663          	bne	x30,x29,80000680 <fail>

00000000800002b8 <test_18>:
    800002b8:	212120b7          	lui	x1,0x21212
    800002bc:	1210809b          	addiw	x1,x1,289
    800002c0:	fe100113          	addi	x2,x0,-31
    800002c4:	0020df3b          	srlw	x30,x1,x2
    800002c8:	10909eb7          	lui	x29,0x10909
    800002cc:	090e8e9b          	addiw	x29,x29,144
    800002d0:	01200193          	addi	x3,x0,18
    800002d4:	3bdf1663          	bne	x30,x29,80000680 <fail>

00000000800002d8 <test_19>:
    800002d8:	212120b7          	lui	x1,0x21212
    800002dc:	1210809b          	addiw	x1,x1,289
    800002e0:	fe700113          	addi	x2,x0,-25
    800002e4:	0020df3b          	srlw	x30,x1,x2
    800002e8:	00424eb7          	lui	x29,0x424
    800002ec:	242e8e9b          	addiw	x29,x29,578
    800002f0:	01300193          	addi	x3,x0,19
    800002f4:	39df1663          	bne	x30,x29,80000680 <fail>

00000000800002f8 <test_20>:
    800002f8:	212120b7          	lui	x1,0x21212
    800002fc:	1210809b          	addiw	x1,x1,289
    80000300:	fee00113          	addi	x2,x0,-18
    80000304:	0020df3b          	srlw	x30,x1,x2
    80000308:	00008eb7          	lui	x29,0x8
    8000030c:	484e8e9b          	addiw	x29,x29,1156
    80000310:	01400193          	addi	x3,x0,20
    80000314:	37df1663          	bne	x30,x29,80000680 <fail>

0000000080000318 <test_21>:
    80000318:	212120b7          	lui	x1,0x21212
    8000031c:	1210809b          	addiw	x1,x1,289
    80000320:	fff00113          	addi	x2,x0,-1
    80000324:	0020df3b          	srlw	x30,x1,x2
    80000328:	00000e93          	addi	x29,x0,0
    8000032c:	01500193          	addi	x3,x0,21
    80000330:	35df1863          	bne	x30,x29,80000680 <fail>

0000000080000334 <test_22>:
    80000334:	800000b7          	lui	x1,0x80000
    80000338:	00700113          	addi	x2,x0,7
    8000033c:	0020d0bb          	srlw	x1,x1,x2
    80000340:	01000eb7          	lui	x29,0x1000
    80000344:	01600193          	addi	x3,x0,22
    80000348:	33d09c63          	bne	x1,x29,80000680 <fail>

000000008000034c <test_23>:
    8000034c:	800000b7          	lui	x1,0x80000
    80000350:	00e00113          	addi	x2,x0,14
    80000354:	0020d13b          	srlw	x2,x1,x2
    80000358:	00020eb7          	lui	x29,0x20
    8000035c:	01700193          	addi	x3,x0,23
    80000360:	33d11063          	bne	x2,x29,80000680 <fail>

0000000080000364 <test_24>:
    80000364:	00700093          	addi	x1,x0,7
    80000368:	0010d0bb          	srlw	x1,x1,x1
    8000036c:	00000e93          	addi	x29,x0,0
    80000370:	01800193          	addi	x3,x0,24
    80000374:	31d09663          	bne	x1,x29,80000680 <fail>

0000000080000378 <test_25>:
    80000378:	00000213          	addi	x4,x0,0
    8000037c:	800000b7          	lui	x1,0x80000
    80000380:	00700113          	addi	x2,x0,7
    80000384:	0020df3b          	srlw	x30,x1,x2
    80000388:	000f0313          	addi	x6,x30,0
    8000038c:	00120213          	addi	x4,x4,1 # 1 <_start-0x7fffffff>
    80000390:	00200293          	addi	x5,x0,2
    80000394:	fe5214e3          	bne	x4,x5,8000037c <test_25+0x4>
    80000398:	01000eb7          	lui	x29,0x1000
    8000039c:	01900193          	addi	x3,x0,25
    800003a0:	2fd31063          	bne	x6,x29,80000680 <fail>

00000000800003a4 <test_26>:
    800003a4:	00000213          	addi	x4,x0,0
    800003a8:	800000b7          	lui	x1,0x80000
    800003ac:	00e00113          	addi	x2,x0,14
    800003b0:	0020df3b          	srlw	x30,x1,x2
    800003b4:	00000013          	addi	x0,x0,0
    800003b8:	000f0313          	addi	x6,x30,0
    800003bc:	00120213          	addi	x4,x4,1 # 1 <_start-0x7fffffff>
    800003c0:	00200293          	addi	x5,x0,2
    800003c4:	fe5212e3          	bne	x4,x5,800003a8 <test_26+0x4>
    800003c8:	00020eb7          	lui	x29,0x20
    800003cc:	01a00193          	addi	x3,x0,26
    800003d0:	2bd31863          	bne	x6,x29,80000680 <fail>

00000000800003d4 <test_27>:
    800003d4:	00000213          	addi	x4,x0,0
    800003d8:	800000b7          	lui	x1,0x80000
    800003dc:	01f00113          	addi	x2,x0,31
    800003e0:	0020df3b          	srlw	x30,x1,x2
    800003e4:	00000013          	addi	x0,x0,0
    800003e8:	00000013          	addi	x0,x0,0
    800003ec:	000f0313          	addi	x6,x30,0
    800003f0:	00120213          	addi	x4,x4,1 # 1 <_start-0x7fffffff>
    800003f4:	00200293          	addi	x5,x0,2
    800003f8:	fe5210e3          	bne	x4,x5,800003d8 <test_27+0x4>
    800003fc:	00100e93          	addi	x29,x0,1
    80000400:	01b00193          	addi	x3,x0,27
    80000404:	27d31e63          	bne	x6,x29,80000680 <fail>

0000000080000408 <test_28>:
    80000408:	00000213          	addi	x4,x0,0
    8000040c:	800000b7          	lui	x1,0x80000
    80000410:	00700113          	addi	x2,x0,7
    80000414:	0020df3b          	srlw	x30,x1,x2
    80000418:	00120213          	addi	x4,x4,1 # 1 <_start-0x7fffffff>
    8000041c:	00200293          	addi	x5,x0,2
    80000420:	fe5216e3          	bne	x4,x5,8000040c <test_28+0x4>
    80000424:	01000eb7          	lui	x29,0x1000
    80000428:	01c00193          	addi	x3,x0,28
    8000042c:	25df1a63          	bne	x30,x29,80000680 <fail>

0000000080000430 <test_29>:
    80000430:	00000213          	addi	x4,x0,0
    80000434:	800000b7          	lui	x1,0x80000
    80000438:	00e00113          	addi	x2,x0,14
    8000043c:	00000013          	addi	x0,x0,0
    80000440:	0020df3b          	srlw	x30,x1,x2
    80000444:	00120213          	addi	x4,x4,1 # 1 <_start-0x7fffffff>
    80000448:	00200293          	addi	x5,x0,2
    8000044c:	fe5214e3          	bne	x4,x5,80000434 <test_29+0x4>
    80000450:	00020eb7          	lui	x29,0x20
    80000454:	01d00193          	addi	x3,x0,29
    80000458:	23df1463          	bne	x30,x29,80000680 <fail>

000000008000045c <test_30>:
    8000045c:	00000213          	addi	x4,x0,0
    80000460:	800000b7          	lui	x1,0x80000
    80000464:	01f00113          	addi	x2,x0,31
    80000468:	00000013          	addi	x0,x0,0
    8000046c:	00000013          	addi	x0,x0,0
    80000470:	0020df3b          	srlw	x30,x1,x2
    80000474:	00120213          	addi	x4,x4,1 # 1 <_start-0x7fffffff>
    80000478:	00200293          	addi	x5,x0,2
    8000047c:	fe5212e3          	bne	x4,x5,80000460 <test_30+0x4>
    80000480:	00100e93          	addi	x29,x0,1
    80000484:	01e00193          	addi	x3,x0,30
    80000488:	1fdf1c63          	bne	x30,x29,80000680 <fail>

000000008000048c <test_31>:
    8000048c:	00000213          	addi	x4,x0,0
    80000490:	800000b7          	lui	x1,0x80000
    80000494:	00000013          	addi	x0,x0,0
    80000498:	00700113          	addi	x2,x0,7
    8000049c:	0020df3b          	srlw	x30,x1,x2
    800004a0:	00120213          	addi	x4,x4,1 # 1 <_start-0x7fffffff>
    800004a4:	00200293          	addi	x5,x0,2
    800004a8:	fe5214e3          	bne	x4,x5,80000490 <test_31+0x4>
    800004ac:	01000eb7          	lui	x29,0x1000
    800004b0:	01f00193          	addi	x3,x0,31
    800004b4:	1ddf1663          	bne	x30,x29,80000680 <fail>

00000000800004b8 <test_32>:
    800004b8:	00000213          	addi	x4,x0,0
    800004bc:	800000b7          	lui	x1,0x80000
    800004c0:	00000013          	addi	x0,x0,0
    800004c4:	00e00113          	addi	x2,x0,14
    800004c8:	00000013          	addi	x0,x0,0
    800004cc:	0020df3b          	srlw	x30,x1,x2
    800004d0:	00120213          	addi	x4,x4,1 # 1 <_start-0x7fffffff>
    800004d4:	00200293          	addi	x5,x0,2
    800004d8:	fe5212e3          	bne	x4,x5,800004bc <test_32+0x4>
    800004dc:	00020eb7          	lui	x29,0x20
    800004e0:	02000193          	addi	x3,x0,32
    800004e4:	19df1e63          	bne	x30,x29,80000680 <fail>

00000000800004e8 <test_33>:
    800004e8:	00000213          	addi	x4,x0,0
    800004ec:	800000b7          	lui	x1,0x80000
    800004f0:	00000013          	addi	x0,x0,0
    800004f4:	00000013          	addi	x0,x0,0
    800004f8:	01f00113          	addi	x2,x0,31
    800004fc:	0020df3b          	srlw	x30,x1,x2
    80000500:	00120213          	addi	x4,x4,1 # 1 <_start-0x7fffffff>
    80000504:	00200293          	addi	x5,x0,2
    80000508:	fe5212e3          	bne	x4,x5,800004ec <test_33+0x4>
    8000050c:	00100e93          	addi	x29,x0,1
    80000510:	02100193          	addi	x3,x0,33
    80000514:	17df1663          	bne	x30,x29,80000680 <fail>

0000000080000518 <test_34>:
    80000518:	00000213          	addi	x4,x0,0
    8000051c:	00700113          	addi	x2,x0,7
    80000520:	800000b7          	lui	x1,0x80000
    80000524:	0020df3b          	srlw	x30,x1,x2
    80000528:	00120213          	addi	x4,x4,1 # 1 <_start-0x7fffffff>
    8000052c:	00200293          	addi	x5,x0,2
    80000530:	fe5216e3          	bne	x4,x5,8000051c <test_34+0x4>
    80000534:	01000eb7          	lui	x29,0x1000
    80000538:	02200193          	addi	x3,x0,34
    8000053c:	15df1263          	bne	x30,x29,80000680 <fail>

0000000080000540 <test_35>:
    80000540:	00000213          	addi	x4,x0,0
    80000544:	00e00113          	addi	x2,x0,14
    80000548:	800000b7          	lui	x1,0x80000
    8000054c:	00000013          	addi	x0,x0,0
    80000550:	0020df3b          	srlw	x30,x1,x2
    80000554:	00120213          	addi	x4,x4,1 # 1 <_start-0x7fffffff>
    80000558:	00200293          	addi	x5,x0,2
    8000055c:	fe5214e3          	bne	x4,x5,80000544 <test_35+0x4>
    80000560:	00020eb7          	lui	x29,0x20
    80000564:	02300193          	addi	x3,x0,35
    80000568:	11df1c63          	bne	x30,x29,80000680 <fail>

000000008000056c <test_36>:
    8000056c:	00000213          	addi	x4,x0,0
    80000570:	01f00113          	addi	x2,x0,31
    80000574:	800000b7          	lui	x1,0x80000
    80000578:	00000013          	addi	x0,x0,0
    8000057c:	00000013          	addi	x0,x0,0
    80000580:	0020df3b          	srlw	x30,x1,x2
    80000584:	00120213          	addi	x4,x4,1 # 1 <_start-0x7fffffff>
    80000588:	00200293          	addi	x5,x0,2
    8000058c:	fe5212e3          	bne	x4,x5,80000570 <test_36+0x4>
    80000590:	00100e93          	addi	x29,x0,1
    80000594:	02400193          	addi	x3,x0,36
    80000598:	0fdf1463          	bne	x30,x29,80000680 <fail>

000000008000059c <test_37>:
    8000059c:	00000213          	addi	x4,x0,0
    800005a0:	00700113          	addi	x2,x0,7
    800005a4:	00000013          	addi	x0,x0,0
    800005a8:	800000b7          	lui	x1,0x80000
    800005ac:	0020df3b          	srlw	x30,x1,x2
    800005b0:	00120213          	addi	x4,x4,1 # 1 <_start-0x7fffffff>
    800005b4:	00200293          	addi	x5,x0,2
    800005b8:	fe5214e3          	bne	x4,x5,800005a0 <test_37+0x4>
    800005bc:	01000eb7          	lui	x29,0x1000
    800005c0:	02500193          	addi	x3,x0,37
    800005c4:	0bdf1e63          	bne	x30,x29,80000680 <fail>

00000000800005c8 <test_38>:
    800005c8:	00000213          	addi	x4,x0,0
    800005cc:	00e00113          	addi	x2,x0,14
    800005d0:	00000013          	addi	x0,x0,0
    800005d4:	800000b7          	lui	x1,0x80000
    800005d8:	00000013          	addi	x0,x0,0
    800005dc:	0020df3b          	srlw	x30,x1,x2
    800005e0:	00120213          	addi	x4,x4,1 # 1 <_start-0x7fffffff>
    800005e4:	00200293          	addi	x5,x0,2
    800005e8:	fe5212e3          	bne	x4,x5,800005cc <test_38+0x4>
    800005ec:	00020eb7          	lui	x29,0x20
    800005f0:	02600193          	addi	x3,x0,38
    800005f4:	09df1663          	bne	x30,x29,80000680 <fail>

00000000800005f8 <test_39>:
    800005f8:	00000213          	addi	x4,x0,0
    800005fc:	01f00113          	addi	x2,x0,31
    80000600:	00000013          	addi	x0,x0,0
    80000604:	00000013          	addi	x0,x0,0
    80000608:	800000b7          	lui	x1,0x80000
    8000060c:	0020df3b          	srlw	x30,x1,x2
    80000610:	00120213          	addi	x4,x4,1 # 1 <_start-0x7fffffff>
    80000614:	00200293          	addi	x5,x0,2
    80000618:	fe5212e3          	bne	x4,x5,800005fc <test_39+0x4>
    8000061c:	00100e93          	addi	x29,x0,1
    80000620:	02700193          	addi	x3,x0,39
    80000624:	05df1e63          	bne	x30,x29,80000680 <fail>

0000000080000628 <test_40>:
    80000628:	00f00093          	addi	x1,x0,15
    8000062c:	0010513b          	srlw	x2,x0,x1
    80000630:	00000e93          	addi	x29,x0,0
    80000634:	02800193          	addi	x3,x0,40
    80000638:	05d11463          	bne	x2,x29,80000680 <fail>

000000008000063c <test_41>:
    8000063c:	02000093          	addi	x1,x0,32
    80000640:	0000d13b          	srlw	x2,x1,x0
    80000644:	02000e93          	addi	x29,x0,32
    80000648:	02900193          	addi	x3,x0,41
    8000064c:	03d11a63          	bne	x2,x29,80000680 <fail>

0000000080000650 <test_42>:
    80000650:	000050bb          	srlw	x1,x0,x0
    80000654:	00000e93          	addi	x29,x0,0
    80000658:	02a00193          	addi	x3,x0,42
    8000065c:	03d09263          	bne	x1,x29,80000680 <fail>

0000000080000660 <test_43>:
    80000660:	40000093          	addi	x1,x0,1024
    80000664:	00001137          	lui	x2,0x1
    80000668:	8001011b          	addiw	x2,x2,-2048
    8000066c:	0020d03b          	srlw	x0,x1,x2
    80000670:	00000e93          	addi	x29,x0,0
    80000674:	02b00193          	addi	x3,x0,43
    80000678:	01d01463          	bne	x0,x29,80000680 <fail>
    8000067c:	00301c63          	bne	x0,x3,80000694 <pass>

0000000080000680 <fail>:
    80000680:	0ff0000f          	fence	iorw,iorw
    80000684:	00018063          	beq	x3,x0,80000684 <fail+0x4>
    80000688:	00119193          	slli	x3,x3,0x1
    8000068c:	0011e193          	ori	x3,x3,1
    80000690:	00000073          	ecall

0000000080000694 <pass>:
    80000694:	0ff0000f          	fence	iorw,iorw
    80000698:	00100193          	addi	x3,x0,1
    8000069c:	00000073          	ecall
    800006a0:	c0001073          	unimp
	...
