
rv64ui-p-sh:     file format elf64-littleriscv


Disassembly of section .text.init:

0000000080000000 <_start>:
    80000000:	04c0006f          	jal	x0,8000004c <reset_vector>

0000000080000004 <trap_vector>:
    80000004:	34202f73          	csrrs	x30,mcause,x0
    80000008:	00800f93          	addi	x31,x0,8
    8000000c:	03ff0a63          	beq	x30,x31,80000040 <write_tohost>
    80000010:	00900f93          	addi	x31,x0,9
    80000014:	03ff0663          	beq	x30,x31,80000040 <write_tohost>
    80000018:	00b00f93          	addi	x31,x0,11
    8000001c:	03ff0263          	beq	x30,x31,80000040 <write_tohost>
    80000020:	80000f17          	auipc	x30,0x80000
    80000024:	fe0f0f13          	addi	x30,x30,-32 # 0 <_start-0x80000000>
    80000028:	000f0463          	beq	x30,x0,80000030 <trap_vector+0x2c>
    8000002c:	000f0067          	jalr	x0,0(x30)
    80000030:	34202f73          	csrrs	x30,mcause,x0
    80000034:	000f5463          	bge	x30,x0,8000003c <handle_exception>
    80000038:	0040006f          	jal	x0,8000003c <handle_exception>

000000008000003c <handle_exception>:
    8000003c:	5391e193          	ori	x3,x3,1337

0000000080000040 <write_tohost>:
    80000040:	00001f17          	auipc	x30,0x1
    80000044:	fc3f2023          	sw	x3,-64(x30) # 80001000 <tohost>
    80000048:	ff9ff06f          	jal	x0,80000040 <write_tohost>

000000008000004c <reset_vector>:
    8000004c:	f1402573          	csrrs	x10,mhartid,x0
    80000050:	00051063          	bne	x10,x0,80000050 <reset_vector+0x4>
    80000054:	00000297          	auipc	x5,0x0
    80000058:	01028293          	addi	x5,x5,16 # 80000064 <reset_vector+0x18>
    8000005c:	30529073          	csrrw	x0,mtvec,x5
    80000060:	18005073          	csrrwi	x0,sptbr,0
    80000064:	00000297          	auipc	x5,0x0
    80000068:	01c28293          	addi	x5,x5,28 # 80000080 <reset_vector+0x34>
    8000006c:	30529073          	csrrw	x0,mtvec,x5
    80000070:	fff00293          	addi	x5,x0,-1
    80000074:	3b029073          	csrrw	x0,pmpaddr0,x5
    80000078:	01f00293          	addi	x5,x0,31
    8000007c:	3a029073          	csrrw	x0,pmpcfg0,x5
    80000080:	00000297          	auipc	x5,0x0
    80000084:	01828293          	addi	x5,x5,24 # 80000098 <reset_vector+0x4c>
    80000088:	30529073          	csrrw	x0,mtvec,x5
    8000008c:	30205073          	csrrwi	x0,medeleg,0
    80000090:	30305073          	csrrwi	x0,mideleg,0
    80000094:	30405073          	csrrwi	x0,mie,0
    80000098:	00000193          	addi	x3,x0,0
    8000009c:	00000297          	auipc	x5,0x0
    800000a0:	f6828293          	addi	x5,x5,-152 # 80000004 <trap_vector>
    800000a4:	30529073          	csrrw	x0,mtvec,x5
    800000a8:	00100513          	addi	x10,x0,1
    800000ac:	01f51513          	slli	x10,x10,0x1f
    800000b0:	00055863          	bge	x10,x0,800000c0 <reset_vector+0x74>
    800000b4:	0ff0000f          	fence	iorw,iorw
    800000b8:	00100193          	addi	x3,x0,1
    800000bc:	00000073          	ecall
    800000c0:	80000297          	auipc	x5,0x80000
    800000c4:	f4028293          	addi	x5,x5,-192 # 0 <_start-0x80000000>
    800000c8:	00028e63          	beq	x5,x0,800000e4 <reset_vector+0x98>
    800000cc:	10529073          	csrrw	x0,stvec,x5
    800000d0:	0000b2b7          	lui	x5,0xb
    800000d4:	1092829b          	addiw	x5,x5,265
    800000d8:	30229073          	csrrw	x0,medeleg,x5
    800000dc:	30202373          	csrrs	x6,medeleg,x0
    800000e0:	f4629ee3          	bne	x5,x6,8000003c <handle_exception>
    800000e4:	30005073          	csrrwi	x0,mstatus,0
    800000e8:	00000297          	auipc	x5,0x0
    800000ec:	01428293          	addi	x5,x5,20 # 800000fc <test_2>
    800000f0:	34129073          	csrrw	x0,mepc,x5
    800000f4:	f1402573          	csrrs	x10,mhartid,x0
    800000f8:	30200073          	mret

00000000800000fc <test_2>:
    800000fc:	00002097          	auipc	x1,0x2
    80000100:	f0408093          	addi	x1,x1,-252 # 80002000 <begin_signature>
    80000104:	0aa00113          	addi	x2,x0,170
    80000108:	00209023          	sh	x2,0(x1)
    8000010c:	00009f03          	lh	x30,0(x1)
    80000110:	0aa00e93          	addi	x29,x0,170
    80000114:	00200193          	addi	x3,x0,2
    80000118:	45df1e63          	bne	x30,x29,80000574 <fail>

000000008000011c <test_3>:
    8000011c:	00002097          	auipc	x1,0x2
    80000120:	ee408093          	addi	x1,x1,-284 # 80002000 <begin_signature>
    80000124:	ffffb137          	lui	x2,0xffffb
    80000128:	a001011b          	addiw	x2,x2,-1536
    8000012c:	00209123          	sh	x2,2(x1)
    80000130:	00209f03          	lh	x30,2(x1)
    80000134:	ffffbeb7          	lui	x29,0xffffb
    80000138:	a00e8e9b          	addiw	x29,x29,-1536
    8000013c:	00300193          	addi	x3,x0,3
    80000140:	43df1a63          	bne	x30,x29,80000574 <fail>

0000000080000144 <test_4>:
    80000144:	00002097          	auipc	x1,0x2
    80000148:	ebc08093          	addi	x1,x1,-324 # 80002000 <begin_signature>
    8000014c:	beef1137          	lui	x2,0xbeef1
    80000150:	aa01011b          	addiw	x2,x2,-1376
    80000154:	00209223          	sh	x2,4(x1)
    80000158:	0040af03          	lw	x30,4(x1)
    8000015c:	beef1eb7          	lui	x29,0xbeef1
    80000160:	aa0e8e9b          	addiw	x29,x29,-1376
    80000164:	00400193          	addi	x3,x0,4
    80000168:	41df1663          	bne	x30,x29,80000574 <fail>

000000008000016c <test_5>:
    8000016c:	00002097          	auipc	x1,0x2
    80000170:	e9408093          	addi	x1,x1,-364 # 80002000 <begin_signature>
    80000174:	ffffa137          	lui	x2,0xffffa
    80000178:	00a1011b          	addiw	x2,x2,10
    8000017c:	00209323          	sh	x2,6(x1)
    80000180:	00609f03          	lh	x30,6(x1)
    80000184:	ffffaeb7          	lui	x29,0xffffa
    80000188:	00ae8e9b          	addiw	x29,x29,10
    8000018c:	00500193          	addi	x3,x0,5
    80000190:	3fdf1263          	bne	x30,x29,80000574 <fail>

0000000080000194 <test_6>:
    80000194:	00002097          	auipc	x1,0x2
    80000198:	e7a08093          	addi	x1,x1,-390 # 8000200e <tdat8>
    8000019c:	0aa00113          	addi	x2,x0,170
    800001a0:	fe209d23          	sh	x2,-6(x1)
    800001a4:	ffa09f03          	lh	x30,-6(x1)
    800001a8:	0aa00e93          	addi	x29,x0,170
    800001ac:	00600193          	addi	x3,x0,6
    800001b0:	3ddf1263          	bne	x30,x29,80000574 <fail>

00000000800001b4 <test_7>:
    800001b4:	00002097          	auipc	x1,0x2
    800001b8:	e5a08093          	addi	x1,x1,-422 # 8000200e <tdat8>
    800001bc:	ffffb137          	lui	x2,0xffffb
    800001c0:	a001011b          	addiw	x2,x2,-1536
    800001c4:	fe209e23          	sh	x2,-4(x1)
    800001c8:	ffc09f03          	lh	x30,-4(x1)
    800001cc:	ffffbeb7          	lui	x29,0xffffb
    800001d0:	a00e8e9b          	addiw	x29,x29,-1536
    800001d4:	00700193          	addi	x3,x0,7
    800001d8:	39df1e63          	bne	x30,x29,80000574 <fail>

00000000800001dc <test_8>:
    800001dc:	00002097          	auipc	x1,0x2
    800001e0:	e3208093          	addi	x1,x1,-462 # 8000200e <tdat8>
    800001e4:	00001137          	lui	x2,0x1
    800001e8:	aa01011b          	addiw	x2,x2,-1376
    800001ec:	fe209f23          	sh	x2,-2(x1)
    800001f0:	ffe09f03          	lh	x30,-2(x1)
    800001f4:	00001eb7          	lui	x29,0x1
    800001f8:	aa0e8e9b          	addiw	x29,x29,-1376
    800001fc:	00800193          	addi	x3,x0,8
    80000200:	37df1a63          	bne	x30,x29,80000574 <fail>

0000000080000204 <test_9>:
    80000204:	00002097          	auipc	x1,0x2
    80000208:	e0a08093          	addi	x1,x1,-502 # 8000200e <tdat8>
    8000020c:	ffffa137          	lui	x2,0xffffa
    80000210:	00a1011b          	addiw	x2,x2,10
    80000214:	00209023          	sh	x2,0(x1)
    80000218:	00009f03          	lh	x30,0(x1)
    8000021c:	ffffaeb7          	lui	x29,0xffffa
    80000220:	00ae8e9b          	addiw	x29,x29,10
    80000224:	00900193          	addi	x3,x0,9
    80000228:	35df1663          	bne	x30,x29,80000574 <fail>

000000008000022c <test_10>:
    8000022c:	00002097          	auipc	x1,0x2
    80000230:	de408093          	addi	x1,x1,-540 # 80002010 <tdat9>
    80000234:	12345137          	lui	x2,0x12345
    80000238:	6781011b          	addiw	x2,x2,1656
    8000023c:	fe008213          	addi	x4,x1,-32
    80000240:	02221023          	sh	x2,32(x4) # 20 <_start-0x7fffffe0>
    80000244:	00009283          	lh	x5,0(x1)
    80000248:	00005eb7          	lui	x29,0x5
    8000024c:	678e8e9b          	addiw	x29,x29,1656
    80000250:	00a00193          	addi	x3,x0,10
    80000254:	33d29063          	bne	x5,x29,80000574 <fail>

0000000080000258 <test_11>:
    80000258:	00002097          	auipc	x1,0x2
    8000025c:	db808093          	addi	x1,x1,-584 # 80002010 <tdat9>
    80000260:	00003137          	lui	x2,0x3
    80000264:	0981011b          	addiw	x2,x2,152
    80000268:	ffb08093          	addi	x1,x1,-5
    8000026c:	002093a3          	sh	x2,7(x1)
    80000270:	00002217          	auipc	x4,0x2
    80000274:	da220213          	addi	x4,x4,-606 # 80002012 <tdat10>
    80000278:	00021283          	lh	x5,0(x4) # 0 <_start-0x80000000>
    8000027c:	00003eb7          	lui	x29,0x3
    80000280:	098e8e9b          	addiw	x29,x29,152
    80000284:	00b00193          	addi	x3,x0,11
    80000288:	2fd29663          	bne	x5,x29,80000574 <fail>

000000008000028c <test_12>:
    8000028c:	00c00193          	addi	x3,x0,12
    80000290:	00000213          	addi	x4,x0,0
    80000294:	ffffd0b7          	lui	x1,0xffffd
    80000298:	cdd0809b          	addiw	x1,x1,-803
    8000029c:	00002117          	auipc	x2,0x2
    800002a0:	d6410113          	addi	x2,x2,-668 # 80002000 <begin_signature>
    800002a4:	00111023          	sh	x1,0(x2)
    800002a8:	00011f03          	lh	x30,0(x2)
    800002ac:	ffffdeb7          	lui	x29,0xffffd
    800002b0:	cdde8e9b          	addiw	x29,x29,-803
    800002b4:	2ddf1063          	bne	x30,x29,80000574 <fail>
    800002b8:	00120213          	addi	x4,x4,1 # 1 <_start-0x7fffffff>
    800002bc:	00200293          	addi	x5,x0,2
    800002c0:	fc521ae3          	bne	x4,x5,80000294 <test_12+0x8>

00000000800002c4 <test_13>:
    800002c4:	00d00193          	addi	x3,x0,13
    800002c8:	00000213          	addi	x4,x0,0
    800002cc:	ffffc0b7          	lui	x1,0xffffc
    800002d0:	ccd0809b          	addiw	x1,x1,-819
    800002d4:	00002117          	auipc	x2,0x2
    800002d8:	d2c10113          	addi	x2,x2,-724 # 80002000 <begin_signature>
    800002dc:	00000013          	addi	x0,x0,0
    800002e0:	00111123          	sh	x1,2(x2)
    800002e4:	00211f03          	lh	x30,2(x2)
    800002e8:	ffffceb7          	lui	x29,0xffffc
    800002ec:	ccde8e9b          	addiw	x29,x29,-819
    800002f0:	29df1263          	bne	x30,x29,80000574 <fail>
    800002f4:	00120213          	addi	x4,x4,1 # 1 <_start-0x7fffffff>
    800002f8:	00200293          	addi	x5,x0,2
    800002fc:	fc5218e3          	bne	x4,x5,800002cc <test_13+0x8>

0000000080000300 <test_14>:
    80000300:	00e00193          	addi	x3,x0,14
    80000304:	00000213          	addi	x4,x0,0
    80000308:	ffffc0b7          	lui	x1,0xffffc
    8000030c:	bcc0809b          	addiw	x1,x1,-1076
    80000310:	00002117          	auipc	x2,0x2
    80000314:	cf010113          	addi	x2,x2,-784 # 80002000 <begin_signature>
    80000318:	00000013          	addi	x0,x0,0
    8000031c:	00000013          	addi	x0,x0,0
    80000320:	00111223          	sh	x1,4(x2)
    80000324:	00411f03          	lh	x30,4(x2)
    80000328:	ffffceb7          	lui	x29,0xffffc
    8000032c:	bcce8e9b          	addiw	x29,x29,-1076
    80000330:	25df1263          	bne	x30,x29,80000574 <fail>
    80000334:	00120213          	addi	x4,x4,1 # 1 <_start-0x7fffffff>
    80000338:	00200293          	addi	x5,x0,2
    8000033c:	fc5216e3          	bne	x4,x5,80000308 <test_14+0x8>

0000000080000340 <test_15>:
    80000340:	00f00193          	addi	x3,x0,15
    80000344:	00000213          	addi	x4,x0,0
    80000348:	ffffb0b7          	lui	x1,0xffffb
    8000034c:	bbc0809b          	addiw	x1,x1,-1092
    80000350:	00000013          	addi	x0,x0,0
    80000354:	00002117          	auipc	x2,0x2
    80000358:	cac10113          	addi	x2,x2,-852 # 80002000 <begin_signature>
    8000035c:	00111323          	sh	x1,6(x2)
    80000360:	00611f03          	lh	x30,6(x2)
    80000364:	ffffbeb7          	lui	x29,0xffffb
    80000368:	bbce8e9b          	addiw	x29,x29,-1092
    8000036c:	21df1463          	bne	x30,x29,80000574 <fail>
    80000370:	00120213          	addi	x4,x4,1 # 1 <_start-0x7fffffff>
    80000374:	00200293          	addi	x5,x0,2
    80000378:	fc5218e3          	bne	x4,x5,80000348 <test_15+0x8>

000000008000037c <test_16>:
    8000037c:	01000193          	addi	x3,x0,16
    80000380:	00000213          	addi	x4,x0,0
    80000384:	ffffb0b7          	lui	x1,0xffffb
    80000388:	abb0809b          	addiw	x1,x1,-1349
    8000038c:	00000013          	addi	x0,x0,0
    80000390:	00002117          	auipc	x2,0x2
    80000394:	c7010113          	addi	x2,x2,-912 # 80002000 <begin_signature>
    80000398:	00000013          	addi	x0,x0,0
    8000039c:	00111423          	sh	x1,8(x2)
    800003a0:	00811f03          	lh	x30,8(x2)
    800003a4:	ffffbeb7          	lui	x29,0xffffb
    800003a8:	abbe8e9b          	addiw	x29,x29,-1349
    800003ac:	1ddf1463          	bne	x30,x29,80000574 <fail>
    800003b0:	00120213          	addi	x4,x4,1 # 1 <_start-0x7fffffff>
    800003b4:	00200293          	addi	x5,x0,2
    800003b8:	fc5216e3          	bne	x4,x5,80000384 <test_16+0x8>

00000000800003bc <test_17>:
    800003bc:	01100193          	addi	x3,x0,17
    800003c0:	00000213          	addi	x4,x0,0
    800003c4:	ffffe0b7          	lui	x1,0xffffe
    800003c8:	aab0809b          	addiw	x1,x1,-1365
    800003cc:	00000013          	addi	x0,x0,0
    800003d0:	00000013          	addi	x0,x0,0
    800003d4:	00002117          	auipc	x2,0x2
    800003d8:	c2c10113          	addi	x2,x2,-980 # 80002000 <begin_signature>
    800003dc:	00111523          	sh	x1,10(x2)
    800003e0:	00a11f03          	lh	x30,10(x2)
    800003e4:	ffffeeb7          	lui	x29,0xffffe
    800003e8:	aabe8e9b          	addiw	x29,x29,-1365
    800003ec:	19df1463          	bne	x30,x29,80000574 <fail>
    800003f0:	00120213          	addi	x4,x4,1 # 1 <_start-0x7fffffff>
    800003f4:	00200293          	addi	x5,x0,2
    800003f8:	fc5216e3          	bne	x4,x5,800003c4 <test_17+0x8>

00000000800003fc <test_18>:
    800003fc:	01200193          	addi	x3,x0,18
    80000400:	00000213          	addi	x4,x0,0
    80000404:	00002117          	auipc	x2,0x2
    80000408:	bfc10113          	addi	x2,x2,-1028 # 80002000 <begin_signature>
    8000040c:	000020b7          	lui	x1,0x2
    80000410:	2330809b          	addiw	x1,x1,563
    80000414:	00111023          	sh	x1,0(x2)
    80000418:	00011f03          	lh	x30,0(x2)
    8000041c:	00002eb7          	lui	x29,0x2
    80000420:	233e8e9b          	addiw	x29,x29,563
    80000424:	15df1863          	bne	x30,x29,80000574 <fail>
    80000428:	00120213          	addi	x4,x4,1 # 1 <_start-0x7fffffff>
    8000042c:	00200293          	addi	x5,x0,2
    80000430:	fc521ae3          	bne	x4,x5,80000404 <test_18+0x8>

0000000080000434 <test_19>:
    80000434:	01300193          	addi	x3,x0,19
    80000438:	00000213          	addi	x4,x0,0
    8000043c:	00002117          	auipc	x2,0x2
    80000440:	bc410113          	addi	x2,x2,-1084 # 80002000 <begin_signature>
    80000444:	000010b7          	lui	x1,0x1
    80000448:	2230809b          	addiw	x1,x1,547
    8000044c:	00000013          	addi	x0,x0,0
    80000450:	00111123          	sh	x1,2(x2)
    80000454:	00211f03          	lh	x30,2(x2)
    80000458:	00001eb7          	lui	x29,0x1
    8000045c:	223e8e9b          	addiw	x29,x29,547
    80000460:	11df1a63          	bne	x30,x29,80000574 <fail>
    80000464:	00120213          	addi	x4,x4,1 # 1 <_start-0x7fffffff>
    80000468:	00200293          	addi	x5,x0,2
    8000046c:	fc5218e3          	bne	x4,x5,8000043c <test_19+0x8>

0000000080000470 <test_20>:
    80000470:	01400193          	addi	x3,x0,20
    80000474:	00000213          	addi	x4,x0,0
    80000478:	00002117          	auipc	x2,0x2
    8000047c:	b8810113          	addi	x2,x2,-1144 # 80002000 <begin_signature>
    80000480:	000010b7          	lui	x1,0x1
    80000484:	1220809b          	addiw	x1,x1,290
    80000488:	00000013          	addi	x0,x0,0
    8000048c:	00000013          	addi	x0,x0,0
    80000490:	00111223          	sh	x1,4(x2)
    80000494:	00411f03          	lh	x30,4(x2)
    80000498:	00001eb7          	lui	x29,0x1
    8000049c:	122e8e9b          	addiw	x29,x29,290
    800004a0:	0ddf1a63          	bne	x30,x29,80000574 <fail>
    800004a4:	00120213          	addi	x4,x4,1 # 1 <_start-0x7fffffff>
    800004a8:	00200293          	addi	x5,x0,2
    800004ac:	fc5216e3          	bne	x4,x5,80000478 <test_20+0x8>

00000000800004b0 <test_21>:
    800004b0:	01500193          	addi	x3,x0,21
    800004b4:	00000213          	addi	x4,x0,0
    800004b8:	00002117          	auipc	x2,0x2
    800004bc:	b4810113          	addi	x2,x2,-1208 # 80002000 <begin_signature>
    800004c0:	00000013          	addi	x0,x0,0
    800004c4:	11200093          	addi	x1,x0,274
    800004c8:	00111323          	sh	x1,6(x2)
    800004cc:	00611f03          	lh	x30,6(x2)
    800004d0:	11200e93          	addi	x29,x0,274
    800004d4:	0bdf1063          	bne	x30,x29,80000574 <fail>
    800004d8:	00120213          	addi	x4,x4,1 # 1 <_start-0x7fffffff>
    800004dc:	00200293          	addi	x5,x0,2
    800004e0:	fc521ce3          	bne	x4,x5,800004b8 <test_21+0x8>

00000000800004e4 <test_22>:
    800004e4:	01600193          	addi	x3,x0,22
    800004e8:	00000213          	addi	x4,x0,0
    800004ec:	00002117          	auipc	x2,0x2
    800004f0:	b1410113          	addi	x2,x2,-1260 # 80002000 <begin_signature>
    800004f4:	00000013          	addi	x0,x0,0
    800004f8:	01100093          	addi	x1,x0,17
    800004fc:	00000013          	addi	x0,x0,0
    80000500:	00111423          	sh	x1,8(x2)
    80000504:	00811f03          	lh	x30,8(x2)
    80000508:	01100e93          	addi	x29,x0,17
    8000050c:	07df1463          	bne	x30,x29,80000574 <fail>
    80000510:	00120213          	addi	x4,x4,1 # 1 <_start-0x7fffffff>
    80000514:	00200293          	addi	x5,x0,2
    80000518:	fc521ae3          	bne	x4,x5,800004ec <test_22+0x8>

000000008000051c <test_23>:
    8000051c:	01700193          	addi	x3,x0,23
    80000520:	00000213          	addi	x4,x0,0
    80000524:	00002117          	auipc	x2,0x2
    80000528:	adc10113          	addi	x2,x2,-1316 # 80002000 <begin_signature>
    8000052c:	00000013          	addi	x0,x0,0
    80000530:	00000013          	addi	x0,x0,0
    80000534:	000030b7          	lui	x1,0x3
    80000538:	0010809b          	addiw	x1,x1,1
    8000053c:	00111523          	sh	x1,10(x2)
    80000540:	00a11f03          	lh	x30,10(x2)
    80000544:	00003eb7          	lui	x29,0x3
    80000548:	001e8e9b          	addiw	x29,x29,1
    8000054c:	03df1463          	bne	x30,x29,80000574 <fail>
    80000550:	00120213          	addi	x4,x4,1 # 1 <_start-0x7fffffff>
    80000554:	00200293          	addi	x5,x0,2
    80000558:	fc5216e3          	bne	x4,x5,80000524 <test_23+0x8>
    8000055c:	0000c537          	lui	x10,0xc
    80000560:	eef5051b          	addiw	x10,x10,-273
    80000564:	00002597          	auipc	x11,0x2
    80000568:	a9c58593          	addi	x11,x11,-1380 # 80002000 <begin_signature>
    8000056c:	00a59323          	sh	x10,6(x11)
    80000570:	00301c63          	bne	x0,x3,80000588 <pass>

0000000080000574 <fail>:
    80000574:	0ff0000f          	fence	iorw,iorw
    80000578:	00018063          	beq	x3,x0,80000578 <fail+0x4>
    8000057c:	00119193          	slli	x3,x3,0x1
    80000580:	0011e193          	ori	x3,x3,1
    80000584:	00000073          	ecall

0000000080000588 <pass>:
    80000588:	0ff0000f          	fence	iorw,iorw
    8000058c:	00100193          	addi	x3,x0,1
    80000590:	00000073          	ecall
    80000594:	c0001073          	unimp
	...
