
rv64ua-p-amomax_d:     file format elf64-littleriscv


Disassembly of section .text.init:

0000000080000000 <_start>:
    80000000:	04c0006f          	jal	x0,8000004c <reset_vector>

0000000080000004 <trap_vector>:
    80000004:	34202f73          	csrrs	x30,mcause,x0
    80000008:	00800f93          	addi	x31,x0,8
    8000000c:	03ff0a63          	beq	x30,x31,80000040 <write_tohost>
    80000010:	00900f93          	addi	x31,x0,9
    80000014:	03ff0663          	beq	x30,x31,80000040 <write_tohost>
    80000018:	00b00f93          	addi	x31,x0,11
    8000001c:	03ff0263          	beq	x30,x31,80000040 <write_tohost>
    80000020:	80000f17          	auipc	x30,0x80000
    80000024:	fe0f0f13          	addi	x30,x30,-32 # 0 <_start-0x80000000>
    80000028:	000f0463          	beq	x30,x0,80000030 <trap_vector+0x2c>
    8000002c:	000f0067          	jalr	x0,0(x30)
    80000030:	34202f73          	csrrs	x30,mcause,x0
    80000034:	000f5463          	bge	x30,x0,8000003c <handle_exception>
    80000038:	0040006f          	jal	x0,8000003c <handle_exception>

000000008000003c <handle_exception>:
    8000003c:	5391e193          	ori	x3,x3,1337

0000000080000040 <write_tohost>:
    80000040:	00001f17          	auipc	x30,0x1
    80000044:	fc3f2023          	sw	x3,-64(x30) # 80001000 <tohost>
    80000048:	ff9ff06f          	jal	x0,80000040 <write_tohost>

000000008000004c <reset_vector>:
    8000004c:	f1402573          	csrrs	x10,mhartid,x0
    80000050:	00051063          	bne	x10,x0,80000050 <reset_vector+0x4>
    80000054:	00000297          	auipc	x5,0x0
    80000058:	01028293          	addi	x5,x5,16 # 80000064 <reset_vector+0x18>
    8000005c:	30529073          	csrrw	x0,mtvec,x5
    80000060:	18005073          	csrrwi	x0,sptbr,0
    80000064:	00000297          	auipc	x5,0x0
    80000068:	01c28293          	addi	x5,x5,28 # 80000080 <reset_vector+0x34>
    8000006c:	30529073          	csrrw	x0,mtvec,x5
    80000070:	fff00293          	addi	x5,x0,-1
    80000074:	3b029073          	csrrw	x0,pmpaddr0,x5
    80000078:	01f00293          	addi	x5,x0,31
    8000007c:	3a029073          	csrrw	x0,pmpcfg0,x5
    80000080:	00000297          	auipc	x5,0x0
    80000084:	01828293          	addi	x5,x5,24 # 80000098 <reset_vector+0x4c>
    80000088:	30529073          	csrrw	x0,mtvec,x5
    8000008c:	30205073          	csrrwi	x0,medeleg,0
    80000090:	30305073          	csrrwi	x0,mideleg,0
    80000094:	30405073          	csrrwi	x0,mie,0
    80000098:	00000193          	addi	x3,x0,0
    8000009c:	00000297          	auipc	x5,0x0
    800000a0:	f6828293          	addi	x5,x5,-152 # 80000004 <trap_vector>
    800000a4:	30529073          	csrrw	x0,mtvec,x5
    800000a8:	00100513          	addi	x10,x0,1
    800000ac:	01f51513          	slli	x10,x10,0x1f
    800000b0:	00055863          	bge	x10,x0,800000c0 <reset_vector+0x74>
    800000b4:	0ff0000f          	fence	iorw,iorw
    800000b8:	00100193          	addi	x3,x0,1
    800000bc:	00000073          	ecall
    800000c0:	80000297          	auipc	x5,0x80000
    800000c4:	f4028293          	addi	x5,x5,-192 # 0 <_start-0x80000000>
    800000c8:	00028e63          	beq	x5,x0,800000e4 <reset_vector+0x98>
    800000cc:	10529073          	csrrw	x0,stvec,x5
    800000d0:	0000b2b7          	lui	x5,0xb
    800000d4:	1092829b          	addiw	x5,x5,265
    800000d8:	30229073          	csrrw	x0,medeleg,x5
    800000dc:	30202373          	csrrs	x6,medeleg,x0
    800000e0:	f4629ee3          	bne	x5,x6,8000003c <handle_exception>
    800000e4:	30005073          	csrrwi	x0,mstatus,0
    800000e8:	00000297          	auipc	x5,0x0
    800000ec:	01428293          	addi	x5,x5,20 # 800000fc <test_2>
    800000f0:	34129073          	csrrw	x0,mepc,x5
    800000f4:	f1402573          	csrrs	x10,mhartid,x0
    800000f8:	30200073          	mret

00000000800000fc <test_2>:
    800000fc:	80000537          	lui	x10,0x80000
    80000100:	80000593          	addi	x11,x0,-2048
    80000104:	00002697          	auipc	x13,0x2
    80000108:	efc68693          	addi	x13,x13,-260 # 80002000 <begin_signature>
    8000010c:	00a6b023          	sd	x10,0(x13)
    80000110:	a0b6b72f          	amomax.d	x14,x11,(x13)
    80000114:	80000eb7          	lui	x29,0x80000
    80000118:	00200193          	addi	x3,x0,2
    8000011c:	05d71063          	bne	x14,x29,8000015c <fail>

0000000080000120 <test_3>:
    80000120:	0006b783          	ld	x15,0(x13)
    80000124:	80000e93          	addi	x29,x0,-2048
    80000128:	00300193          	addi	x3,x0,3
    8000012c:	03d79863          	bne	x15,x29,8000015c <fail>

0000000080000130 <test_4>:
    80000130:	00100593          	addi	x11,x0,1
    80000134:	0006b023          	sd	x0,0(x13)
    80000138:	a0b6b72f          	amomax.d	x14,x11,(x13)
    8000013c:	00000e93          	addi	x29,x0,0
    80000140:	00400193          	addi	x3,x0,4
    80000144:	01d71c63          	bne	x14,x29,8000015c <fail>

0000000080000148 <test_5>:
    80000148:	0006b783          	ld	x15,0(x13)
    8000014c:	00100e93          	addi	x29,x0,1
    80000150:	00500193          	addi	x3,x0,5
    80000154:	01d79463          	bne	x15,x29,8000015c <fail>
    80000158:	00301c63          	bne	x0,x3,80000170 <pass>

000000008000015c <fail>:
    8000015c:	0ff0000f          	fence	iorw,iorw
    80000160:	00018063          	beq	x3,x0,80000160 <fail+0x4>
    80000164:	00119193          	slli	x3,x3,0x1
    80000168:	0011e193          	ori	x3,x3,1
    8000016c:	00000073          	ecall

0000000080000170 <pass>:
    80000170:	0ff0000f          	fence	iorw,iorw
    80000174:	00100193          	addi	x3,x0,1
    80000178:	00000073          	ecall
    8000017c:	c0001073          	unimp
    80000180:	0000                	unimp
	...
