
rv64ui-p-sltu:     file format elf64-littleriscv


Disassembly of section .text.init:

0000000080000000 <_start>:
    80000000:	04c0006f          	jal	x0,8000004c <reset_vector>

0000000080000004 <trap_vector>:
    80000004:	34202f73          	csrrs	x30,mcause,x0
    80000008:	00800f93          	addi	x31,x0,8
    8000000c:	03ff0a63          	beq	x30,x31,80000040 <write_tohost>
    80000010:	00900f93          	addi	x31,x0,9
    80000014:	03ff0663          	beq	x30,x31,80000040 <write_tohost>
    80000018:	00b00f93          	addi	x31,x0,11
    8000001c:	03ff0263          	beq	x30,x31,80000040 <write_tohost>
    80000020:	80000f17          	auipc	x30,0x80000
    80000024:	fe0f0f13          	addi	x30,x30,-32 # 0 <_start-0x80000000>
    80000028:	000f0463          	beq	x30,x0,80000030 <trap_vector+0x2c>
    8000002c:	000f0067          	jalr	x0,0(x30)
    80000030:	34202f73          	csrrs	x30,mcause,x0
    80000034:	000f5463          	bge	x30,x0,8000003c <handle_exception>
    80000038:	0040006f          	jal	x0,8000003c <handle_exception>

000000008000003c <handle_exception>:
    8000003c:	5391e193          	ori	x3,x3,1337

0000000080000040 <write_tohost>:
    80000040:	00001f17          	auipc	x30,0x1
    80000044:	fc3f2023          	sw	x3,-64(x30) # 80001000 <tohost>
    80000048:	ff9ff06f          	jal	x0,80000040 <write_tohost>

000000008000004c <reset_vector>:
    8000004c:	f1402573          	csrrs	x10,mhartid,x0
    80000050:	00051063          	bne	x10,x0,80000050 <reset_vector+0x4>
    80000054:	00000297          	auipc	x5,0x0
    80000058:	01028293          	addi	x5,x5,16 # 80000064 <reset_vector+0x18>
    8000005c:	30529073          	csrrw	x0,mtvec,x5
    80000060:	18005073          	csrrwi	x0,satp,0
    80000064:	00000297          	auipc	x5,0x0
    80000068:	01c28293          	addi	x5,x5,28 # 80000080 <reset_vector+0x34>
    8000006c:	30529073          	csrrw	x0,mtvec,x5
    80000070:	fff00293          	addi	x5,x0,-1
    80000074:	3b029073          	csrrw	x0,pmpaddr0,x5
    80000078:	01f00293          	addi	x5,x0,31
    8000007c:	3a029073          	csrrw	x0,pmpcfg0,x5
    80000080:	00000297          	auipc	x5,0x0
    80000084:	01828293          	addi	x5,x5,24 # 80000098 <reset_vector+0x4c>
    80000088:	30529073          	csrrw	x0,mtvec,x5
    8000008c:	30205073          	csrrwi	x0,medeleg,0
    80000090:	30305073          	csrrwi	x0,mideleg,0
    80000094:	30405073          	csrrwi	x0,mie,0
    80000098:	00000193          	addi	x3,x0,0
    8000009c:	00000297          	auipc	x5,0x0
    800000a0:	f6828293          	addi	x5,x5,-152 # 80000004 <trap_vector>
    800000a4:	30529073          	csrrw	x0,mtvec,x5
    800000a8:	00100513          	addi	x10,x0,1
    800000ac:	01f51513          	slli	x10,x10,0x1f
    800000b0:	00055863          	bge	x10,x0,800000c0 <reset_vector+0x74>
    800000b4:	0ff0000f          	fence	iorw,iorw
    800000b8:	00100193          	addi	x3,x0,1
    800000bc:	00000073          	ecall
    800000c0:	80000297          	auipc	x5,0x80000
    800000c4:	f4028293          	addi	x5,x5,-192 # 0 <_start-0x80000000>
    800000c8:	00028e63          	beq	x5,x0,800000e4 <reset_vector+0x98>
    800000cc:	10529073          	csrrw	x0,stvec,x5
    800000d0:	0000b2b7          	lui	x5,0xb
    800000d4:	1092829b          	addiw	x5,x5,265
    800000d8:	30229073          	csrrw	x0,medeleg,x5
    800000dc:	30202373          	csrrs	x6,medeleg,x0
    800000e0:	f4629ee3          	bne	x5,x6,8000003c <handle_exception>
    800000e4:	30005073          	csrrwi	x0,mstatus,0
    800000e8:	00000297          	auipc	x5,0x0
    800000ec:	01428293          	addi	x5,x5,20 # 800000fc <test_2>
    800000f0:	34129073          	csrrw	x0,mepc,x5
    800000f4:	f1402573          	csrrs	x10,mhartid,x0
    800000f8:	30200073          	mret

00000000800000fc <test_2>:
    800000fc:	00000093          	addi	x1,x0,0
    80000100:	00000113          	addi	x2,x0,0
    80000104:	0020bf33          	sltu	x30,x1,x2
    80000108:	00000e93          	addi	x29,x0,0
    8000010c:	00200193          	addi	x3,x0,2
    80000110:	4fdf1c63          	bne	x30,x29,80000608 <fail>

0000000080000114 <test_3>:
    80000114:	00100093          	addi	x1,x0,1
    80000118:	00100113          	addi	x2,x0,1
    8000011c:	0020bf33          	sltu	x30,x1,x2
    80000120:	00000e93          	addi	x29,x0,0
    80000124:	00300193          	addi	x3,x0,3
    80000128:	4fdf1063          	bne	x30,x29,80000608 <fail>

000000008000012c <test_4>:
    8000012c:	00300093          	addi	x1,x0,3
    80000130:	00700113          	addi	x2,x0,7
    80000134:	0020bf33          	sltu	x30,x1,x2
    80000138:	00100e93          	addi	x29,x0,1
    8000013c:	00400193          	addi	x3,x0,4
    80000140:	4ddf1463          	bne	x30,x29,80000608 <fail>

0000000080000144 <test_5>:
    80000144:	00700093          	addi	x1,x0,7
    80000148:	00300113          	addi	x2,x0,3
    8000014c:	0020bf33          	sltu	x30,x1,x2
    80000150:	00000e93          	addi	x29,x0,0
    80000154:	00500193          	addi	x3,x0,5
    80000158:	4bdf1863          	bne	x30,x29,80000608 <fail>

000000008000015c <test_6>:
    8000015c:	00000093          	addi	x1,x0,0
    80000160:	00020137          	lui	x2,0x20
    80000164:	fff1011b          	addiw	x2,x2,-1
    80000168:	00f11113          	slli	x2,x2,0xf
    8000016c:	0020bf33          	sltu	x30,x1,x2
    80000170:	00100e93          	addi	x29,x0,1
    80000174:	00600193          	addi	x3,x0,6
    80000178:	49df1863          	bne	x30,x29,80000608 <fail>

000000008000017c <test_7>:
    8000017c:	0010009b          	addiw	x1,x0,1
    80000180:	01f09093          	slli	x1,x1,0x1f
    80000184:	00000113          	addi	x2,x0,0
    80000188:	0020bf33          	sltu	x30,x1,x2
    8000018c:	00000e93          	addi	x29,x0,0
    80000190:	00700193          	addi	x3,x0,7
    80000194:	47df1a63          	bne	x30,x29,80000608 <fail>

0000000080000198 <test_8>:
    80000198:	0010009b          	addiw	x1,x0,1
    8000019c:	01f09093          	slli	x1,x1,0x1f
    800001a0:	00020137          	lui	x2,0x20
    800001a4:	fff1011b          	addiw	x2,x2,-1
    800001a8:	00f11113          	slli	x2,x2,0xf
    800001ac:	0020bf33          	sltu	x30,x1,x2
    800001b0:	00100e93          	addi	x29,x0,1
    800001b4:	00800193          	addi	x3,x0,8
    800001b8:	45df1863          	bne	x30,x29,80000608 <fail>

00000000800001bc <test_9>:
    800001bc:	00000093          	addi	x1,x0,0
    800001c0:	00008137          	lui	x2,0x8
    800001c4:	fff1011b          	addiw	x2,x2,-1
    800001c8:	0020bf33          	sltu	x30,x1,x2
    800001cc:	00100e93          	addi	x29,x0,1
    800001d0:	00900193          	addi	x3,x0,9
    800001d4:	43df1a63          	bne	x30,x29,80000608 <fail>

00000000800001d8 <test_10>:
    800001d8:	800000b7          	lui	x1,0x80000
    800001dc:	fff0809b          	addiw	x1,x1,-1
    800001e0:	00000113          	addi	x2,x0,0
    800001e4:	0020bf33          	sltu	x30,x1,x2
    800001e8:	00000e93          	addi	x29,x0,0
    800001ec:	00a00193          	addi	x3,x0,10
    800001f0:	41df1c63          	bne	x30,x29,80000608 <fail>

00000000800001f4 <test_11>:
    800001f4:	800000b7          	lui	x1,0x80000
    800001f8:	fff0809b          	addiw	x1,x1,-1
    800001fc:	00008137          	lui	x2,0x8
    80000200:	fff1011b          	addiw	x2,x2,-1
    80000204:	0020bf33          	sltu	x30,x1,x2
    80000208:	00000e93          	addi	x29,x0,0
    8000020c:	00b00193          	addi	x3,x0,11
    80000210:	3fdf1c63          	bne	x30,x29,80000608 <fail>

0000000080000214 <test_12>:
    80000214:	0010009b          	addiw	x1,x0,1
    80000218:	01f09093          	slli	x1,x1,0x1f
    8000021c:	00008137          	lui	x2,0x8
    80000220:	fff1011b          	addiw	x2,x2,-1
    80000224:	0020bf33          	sltu	x30,x1,x2
    80000228:	00000e93          	addi	x29,x0,0
    8000022c:	00c00193          	addi	x3,x0,12
    80000230:	3ddf1c63          	bne	x30,x29,80000608 <fail>

0000000080000234 <test_13>:
    80000234:	800000b7          	lui	x1,0x80000
    80000238:	fff0809b          	addiw	x1,x1,-1
    8000023c:	00020137          	lui	x2,0x20
    80000240:	fff1011b          	addiw	x2,x2,-1
    80000244:	00f11113          	slli	x2,x2,0xf
    80000248:	0020bf33          	sltu	x30,x1,x2
    8000024c:	00100e93          	addi	x29,x0,1
    80000250:	00d00193          	addi	x3,x0,13
    80000254:	3bdf1a63          	bne	x30,x29,80000608 <fail>

0000000080000258 <test_14>:
    80000258:	00000093          	addi	x1,x0,0
    8000025c:	0010011b          	addiw	x2,x0,1
    80000260:	02011113          	slli	x2,x2,0x20
    80000264:	fff10113          	addi	x2,x2,-1 # 1ffff <_start-0x7ffe0001>
    80000268:	0020bf33          	sltu	x30,x1,x2
    8000026c:	00100e93          	addi	x29,x0,1
    80000270:	00e00193          	addi	x3,x0,14
    80000274:	39df1a63          	bne	x30,x29,80000608 <fail>

0000000080000278 <test_15>:
    80000278:	0010009b          	addiw	x1,x0,1
    8000027c:	02009093          	slli	x1,x1,0x20
    80000280:	fff08093          	addi	x1,x1,-1 # ffffffff7fffffff <_end+0xfffffffeffffdfff>
    80000284:	00100113          	addi	x2,x0,1
    80000288:	0020bf33          	sltu	x30,x1,x2
    8000028c:	00000e93          	addi	x29,x0,0
    80000290:	00f00193          	addi	x3,x0,15
    80000294:	37df1a63          	bne	x30,x29,80000608 <fail>

0000000080000298 <test_16>:
    80000298:	0010009b          	addiw	x1,x0,1
    8000029c:	02009093          	slli	x1,x1,0x20
    800002a0:	fff08093          	addi	x1,x1,-1
    800002a4:	0010011b          	addiw	x2,x0,1
    800002a8:	02011113          	slli	x2,x2,0x20
    800002ac:	fff10113          	addi	x2,x2,-1
    800002b0:	0020bf33          	sltu	x30,x1,x2
    800002b4:	00000e93          	addi	x29,x0,0
    800002b8:	01000193          	addi	x3,x0,16
    800002bc:	35df1663          	bne	x30,x29,80000608 <fail>

00000000800002c0 <test_17>:
    800002c0:	00e00093          	addi	x1,x0,14
    800002c4:	00d00113          	addi	x2,x0,13
    800002c8:	0020b0b3          	sltu	x1,x1,x2
    800002cc:	00000e93          	addi	x29,x0,0
    800002d0:	01100193          	addi	x3,x0,17
    800002d4:	33d09a63          	bne	x1,x29,80000608 <fail>

00000000800002d8 <test_18>:
    800002d8:	00b00093          	addi	x1,x0,11
    800002dc:	00d00113          	addi	x2,x0,13
    800002e0:	0020b133          	sltu	x2,x1,x2
    800002e4:	00100e93          	addi	x29,x0,1
    800002e8:	01200193          	addi	x3,x0,18
    800002ec:	31d11e63          	bne	x2,x29,80000608 <fail>

00000000800002f0 <test_19>:
    800002f0:	00d00093          	addi	x1,x0,13
    800002f4:	0010b0b3          	sltu	x1,x1,x1
    800002f8:	00000e93          	addi	x29,x0,0
    800002fc:	01300193          	addi	x3,x0,19
    80000300:	31d09463          	bne	x1,x29,80000608 <fail>

0000000080000304 <test_20>:
    80000304:	00000213          	addi	x4,x0,0
    80000308:	00b00093          	addi	x1,x0,11
    8000030c:	00d00113          	addi	x2,x0,13
    80000310:	0020bf33          	sltu	x30,x1,x2
    80000314:	000f0313          	addi	x6,x30,0
    80000318:	00120213          	addi	x4,x4,1 # 1 <_start-0x7fffffff>
    8000031c:	00200293          	addi	x5,x0,2
    80000320:	fe5214e3          	bne	x4,x5,80000308 <test_20+0x4>
    80000324:	00100e93          	addi	x29,x0,1
    80000328:	01400193          	addi	x3,x0,20
    8000032c:	2dd31e63          	bne	x6,x29,80000608 <fail>

0000000080000330 <test_21>:
    80000330:	00000213          	addi	x4,x0,0
    80000334:	00e00093          	addi	x1,x0,14
    80000338:	00d00113          	addi	x2,x0,13
    8000033c:	0020bf33          	sltu	x30,x1,x2
    80000340:	00000013          	addi	x0,x0,0
    80000344:	000f0313          	addi	x6,x30,0
    80000348:	00120213          	addi	x4,x4,1 # 1 <_start-0x7fffffff>
    8000034c:	00200293          	addi	x5,x0,2
    80000350:	fe5212e3          	bne	x4,x5,80000334 <test_21+0x4>
    80000354:	00000e93          	addi	x29,x0,0
    80000358:	01500193          	addi	x3,x0,21
    8000035c:	2bd31663          	bne	x6,x29,80000608 <fail>

0000000080000360 <test_22>:
    80000360:	00000213          	addi	x4,x0,0
    80000364:	00c00093          	addi	x1,x0,12
    80000368:	00d00113          	addi	x2,x0,13
    8000036c:	0020bf33          	sltu	x30,x1,x2
    80000370:	00000013          	addi	x0,x0,0
    80000374:	00000013          	addi	x0,x0,0
    80000378:	000f0313          	addi	x6,x30,0
    8000037c:	00120213          	addi	x4,x4,1 # 1 <_start-0x7fffffff>
    80000380:	00200293          	addi	x5,x0,2
    80000384:	fe5210e3          	bne	x4,x5,80000364 <test_22+0x4>
    80000388:	00100e93          	addi	x29,x0,1
    8000038c:	01600193          	addi	x3,x0,22
    80000390:	27d31c63          	bne	x6,x29,80000608 <fail>

0000000080000394 <test_23>:
    80000394:	00000213          	addi	x4,x0,0
    80000398:	00e00093          	addi	x1,x0,14
    8000039c:	00d00113          	addi	x2,x0,13
    800003a0:	0020bf33          	sltu	x30,x1,x2
    800003a4:	00120213          	addi	x4,x4,1 # 1 <_start-0x7fffffff>
    800003a8:	00200293          	addi	x5,x0,2
    800003ac:	fe5216e3          	bne	x4,x5,80000398 <test_23+0x4>
    800003b0:	00000e93          	addi	x29,x0,0
    800003b4:	01700193          	addi	x3,x0,23
    800003b8:	25df1863          	bne	x30,x29,80000608 <fail>

00000000800003bc <test_24>:
    800003bc:	00000213          	addi	x4,x0,0
    800003c0:	00b00093          	addi	x1,x0,11
    800003c4:	00d00113          	addi	x2,x0,13
    800003c8:	00000013          	addi	x0,x0,0
    800003cc:	0020bf33          	sltu	x30,x1,x2
    800003d0:	00120213          	addi	x4,x4,1 # 1 <_start-0x7fffffff>
    800003d4:	00200293          	addi	x5,x0,2
    800003d8:	fe5214e3          	bne	x4,x5,800003c0 <test_24+0x4>
    800003dc:	00100e93          	addi	x29,x0,1
    800003e0:	01800193          	addi	x3,x0,24
    800003e4:	23df1263          	bne	x30,x29,80000608 <fail>

00000000800003e8 <test_25>:
    800003e8:	00000213          	addi	x4,x0,0
    800003ec:	00f00093          	addi	x1,x0,15
    800003f0:	00d00113          	addi	x2,x0,13
    800003f4:	00000013          	addi	x0,x0,0
    800003f8:	00000013          	addi	x0,x0,0
    800003fc:	0020bf33          	sltu	x30,x1,x2
    80000400:	00120213          	addi	x4,x4,1 # 1 <_start-0x7fffffff>
    80000404:	00200293          	addi	x5,x0,2
    80000408:	fe5212e3          	bne	x4,x5,800003ec <test_25+0x4>
    8000040c:	00000e93          	addi	x29,x0,0
    80000410:	01900193          	addi	x3,x0,25
    80000414:	1fdf1a63          	bne	x30,x29,80000608 <fail>

0000000080000418 <test_26>:
    80000418:	00000213          	addi	x4,x0,0
    8000041c:	00a00093          	addi	x1,x0,10
    80000420:	00000013          	addi	x0,x0,0
    80000424:	00d00113          	addi	x2,x0,13
    80000428:	0020bf33          	sltu	x30,x1,x2
    8000042c:	00120213          	addi	x4,x4,1 # 1 <_start-0x7fffffff>
    80000430:	00200293          	addi	x5,x0,2
    80000434:	fe5214e3          	bne	x4,x5,8000041c <test_26+0x4>
    80000438:	00100e93          	addi	x29,x0,1
    8000043c:	01a00193          	addi	x3,x0,26
    80000440:	1ddf1463          	bne	x30,x29,80000608 <fail>

0000000080000444 <test_27>:
    80000444:	00000213          	addi	x4,x0,0
    80000448:	01000093          	addi	x1,x0,16
    8000044c:	00000013          	addi	x0,x0,0
    80000450:	00d00113          	addi	x2,x0,13
    80000454:	00000013          	addi	x0,x0,0
    80000458:	0020bf33          	sltu	x30,x1,x2
    8000045c:	00120213          	addi	x4,x4,1 # 1 <_start-0x7fffffff>
    80000460:	00200293          	addi	x5,x0,2
    80000464:	fe5212e3          	bne	x4,x5,80000448 <test_27+0x4>
    80000468:	00000e93          	addi	x29,x0,0
    8000046c:	01b00193          	addi	x3,x0,27
    80000470:	19df1c63          	bne	x30,x29,80000608 <fail>

0000000080000474 <test_28>:
    80000474:	00000213          	addi	x4,x0,0
    80000478:	00900093          	addi	x1,x0,9
    8000047c:	00000013          	addi	x0,x0,0
    80000480:	00000013          	addi	x0,x0,0
    80000484:	00d00113          	addi	x2,x0,13
    80000488:	0020bf33          	sltu	x30,x1,x2
    8000048c:	00120213          	addi	x4,x4,1 # 1 <_start-0x7fffffff>
    80000490:	00200293          	addi	x5,x0,2
    80000494:	fe5212e3          	bne	x4,x5,80000478 <test_28+0x4>
    80000498:	00100e93          	addi	x29,x0,1
    8000049c:	01c00193          	addi	x3,x0,28
    800004a0:	17df1463          	bne	x30,x29,80000608 <fail>

00000000800004a4 <test_29>:
    800004a4:	00000213          	addi	x4,x0,0
    800004a8:	00d00113          	addi	x2,x0,13
    800004ac:	01100093          	addi	x1,x0,17
    800004b0:	0020bf33          	sltu	x30,x1,x2
    800004b4:	00120213          	addi	x4,x4,1 # 1 <_start-0x7fffffff>
    800004b8:	00200293          	addi	x5,x0,2
    800004bc:	fe5216e3          	bne	x4,x5,800004a8 <test_29+0x4>
    800004c0:	00000e93          	addi	x29,x0,0
    800004c4:	01d00193          	addi	x3,x0,29
    800004c8:	15df1063          	bne	x30,x29,80000608 <fail>

00000000800004cc <test_30>:
    800004cc:	00000213          	addi	x4,x0,0
    800004d0:	00d00113          	addi	x2,x0,13
    800004d4:	00800093          	addi	x1,x0,8
    800004d8:	00000013          	addi	x0,x0,0
    800004dc:	0020bf33          	sltu	x30,x1,x2
    800004e0:	00120213          	addi	x4,x4,1 # 1 <_start-0x7fffffff>
    800004e4:	00200293          	addi	x5,x0,2
    800004e8:	fe5214e3          	bne	x4,x5,800004d0 <test_30+0x4>
    800004ec:	00100e93          	addi	x29,x0,1
    800004f0:	01e00193          	addi	x3,x0,30
    800004f4:	11df1a63          	bne	x30,x29,80000608 <fail>

00000000800004f8 <test_31>:
    800004f8:	00000213          	addi	x4,x0,0
    800004fc:	00d00113          	addi	x2,x0,13
    80000500:	01200093          	addi	x1,x0,18
    80000504:	00000013          	addi	x0,x0,0
    80000508:	00000013          	addi	x0,x0,0
    8000050c:	0020bf33          	sltu	x30,x1,x2
    80000510:	00120213          	addi	x4,x4,1 # 1 <_start-0x7fffffff>
    80000514:	00200293          	addi	x5,x0,2
    80000518:	fe5212e3          	bne	x4,x5,800004fc <test_31+0x4>
    8000051c:	00000e93          	addi	x29,x0,0
    80000520:	01f00193          	addi	x3,x0,31
    80000524:	0fdf1263          	bne	x30,x29,80000608 <fail>

0000000080000528 <test_32>:
    80000528:	00000213          	addi	x4,x0,0
    8000052c:	00d00113          	addi	x2,x0,13
    80000530:	00000013          	addi	x0,x0,0
    80000534:	00700093          	addi	x1,x0,7
    80000538:	0020bf33          	sltu	x30,x1,x2
    8000053c:	00120213          	addi	x4,x4,1 # 1 <_start-0x7fffffff>
    80000540:	00200293          	addi	x5,x0,2
    80000544:	fe5214e3          	bne	x4,x5,8000052c <test_32+0x4>
    80000548:	00100e93          	addi	x29,x0,1
    8000054c:	02000193          	addi	x3,x0,32
    80000550:	0bdf1c63          	bne	x30,x29,80000608 <fail>

0000000080000554 <test_33>:
    80000554:	00000213          	addi	x4,x0,0
    80000558:	00d00113          	addi	x2,x0,13
    8000055c:	00000013          	addi	x0,x0,0
    80000560:	01300093          	addi	x1,x0,19
    80000564:	00000013          	addi	x0,x0,0
    80000568:	0020bf33          	sltu	x30,x1,x2
    8000056c:	00120213          	addi	x4,x4,1 # 1 <_start-0x7fffffff>
    80000570:	00200293          	addi	x5,x0,2
    80000574:	fe5212e3          	bne	x4,x5,80000558 <test_33+0x4>
    80000578:	00000e93          	addi	x29,x0,0
    8000057c:	02100193          	addi	x3,x0,33
    80000580:	09df1463          	bne	x30,x29,80000608 <fail>

0000000080000584 <test_34>:
    80000584:	00000213          	addi	x4,x0,0
    80000588:	00d00113          	addi	x2,x0,13
    8000058c:	00000013          	addi	x0,x0,0
    80000590:	00000013          	addi	x0,x0,0
    80000594:	00600093          	addi	x1,x0,6
    80000598:	0020bf33          	sltu	x30,x1,x2
    8000059c:	00120213          	addi	x4,x4,1 # 1 <_start-0x7fffffff>
    800005a0:	00200293          	addi	x5,x0,2
    800005a4:	fe5212e3          	bne	x4,x5,80000588 <test_34+0x4>
    800005a8:	00100e93          	addi	x29,x0,1
    800005ac:	02200193          	addi	x3,x0,34
    800005b0:	05df1c63          	bne	x30,x29,80000608 <fail>

00000000800005b4 <test_35>:
    800005b4:	fff00093          	addi	x1,x0,-1
    800005b8:	00103133          	sltu	x2,x0,x1
    800005bc:	00100e93          	addi	x29,x0,1
    800005c0:	02300193          	addi	x3,x0,35
    800005c4:	05d11263          	bne	x2,x29,80000608 <fail>

00000000800005c8 <test_36>:
    800005c8:	fff00093          	addi	x1,x0,-1
    800005cc:	0000b133          	sltu	x2,x1,x0
    800005d0:	00000e93          	addi	x29,x0,0
    800005d4:	02400193          	addi	x3,x0,36
    800005d8:	03d11863          	bne	x2,x29,80000608 <fail>

00000000800005dc <test_37>:
    800005dc:	000030b3          	sltu	x1,x0,x0
    800005e0:	00000e93          	addi	x29,x0,0
    800005e4:	02500193          	addi	x3,x0,37
    800005e8:	03d09063          	bne	x1,x29,80000608 <fail>

00000000800005ec <test_38>:
    800005ec:	01000093          	addi	x1,x0,16
    800005f0:	01e00113          	addi	x2,x0,30
    800005f4:	0020b033          	sltu	x0,x1,x2
    800005f8:	00000e93          	addi	x29,x0,0
    800005fc:	02600193          	addi	x3,x0,38
    80000600:	01d01463          	bne	x0,x29,80000608 <fail>
    80000604:	00301c63          	bne	x0,x3,8000061c <pass>

0000000080000608 <fail>:
    80000608:	0ff0000f          	fence	iorw,iorw
    8000060c:	00018063          	beq	x3,x0,8000060c <fail+0x4>
    80000610:	00119193          	slli	x3,x3,0x1
    80000614:	0011e193          	ori	x3,x3,1
    80000618:	00000073          	ecall

000000008000061c <pass>:
    8000061c:	0ff0000f          	fence	iorw,iorw
    80000620:	00100193          	addi	x3,x0,1
    80000624:	00000073          	ecall
    80000628:	c0001073          	unimp
	...
