
rv64ud-p-fcvt:     file format elf64-littleriscv


Disassembly of section .text.init:

0000000080000000 <_start>:
    80000000:	04c0006f          	jal	x0,8000004c <reset_vector>

0000000080000004 <trap_vector>:
    80000004:	34202f73          	csrrs	x30,mcause,x0
    80000008:	00800f93          	addi	x31,x0,8
    8000000c:	03ff0a63          	beq	x30,x31,80000040 <write_tohost>
    80000010:	00900f93          	addi	x31,x0,9
    80000014:	03ff0663          	beq	x30,x31,80000040 <write_tohost>
    80000018:	00b00f93          	addi	x31,x0,11
    8000001c:	03ff0263          	beq	x30,x31,80000040 <write_tohost>
    80000020:	80000f17          	auipc	x30,0x80000
    80000024:	fe0f0f13          	addi	x30,x30,-32 # 0 <_start-0x80000000>
    80000028:	000f0463          	beq	x30,x0,80000030 <trap_vector+0x2c>
    8000002c:	000f0067          	jalr	x0,0(x30)
    80000030:	34202f73          	csrrs	x30,mcause,x0
    80000034:	000f5463          	bge	x30,x0,8000003c <handle_exception>
    80000038:	0040006f          	jal	x0,8000003c <handle_exception>

000000008000003c <handle_exception>:
    8000003c:	5391e193          	ori	x3,x3,1337

0000000080000040 <write_tohost>:
    80000040:	00001f17          	auipc	x30,0x1
    80000044:	fc3f2023          	sw	x3,-64(x30) # 80001000 <tohost>
    80000048:	ff9ff06f          	jal	x0,80000040 <write_tohost>

000000008000004c <reset_vector>:
    8000004c:	f1402573          	csrrs	x10,mhartid,x0
    80000050:	00051063          	bne	x10,x0,80000050 <reset_vector+0x4>
    80000054:	00000297          	auipc	x5,0x0
    80000058:	01028293          	addi	x5,x5,16 # 80000064 <reset_vector+0x18>
    8000005c:	30529073          	csrrw	x0,mtvec,x5
    80000060:	18005073          	csrrwi	x0,sptbr,0
    80000064:	00000297          	auipc	x5,0x0
    80000068:	01c28293          	addi	x5,x5,28 # 80000080 <reset_vector+0x34>
    8000006c:	30529073          	csrrw	x0,mtvec,x5
    80000070:	fff00293          	addi	x5,x0,-1
    80000074:	3b029073          	csrrw	x0,pmpaddr0,x5
    80000078:	01f00293          	addi	x5,x0,31
    8000007c:	3a029073          	csrrw	x0,pmpcfg0,x5
    80000080:	00000297          	auipc	x5,0x0
    80000084:	01828293          	addi	x5,x5,24 # 80000098 <reset_vector+0x4c>
    80000088:	30529073          	csrrw	x0,mtvec,x5
    8000008c:	30205073          	csrrwi	x0,medeleg,0
    80000090:	30305073          	csrrwi	x0,mideleg,0
    80000094:	30405073          	csrrwi	x0,mie,0
    80000098:	00000193          	addi	x3,x0,0
    8000009c:	00000297          	auipc	x5,0x0
    800000a0:	f6828293          	addi	x5,x5,-152 # 80000004 <trap_vector>
    800000a4:	30529073          	csrrw	x0,mtvec,x5
    800000a8:	00100513          	addi	x10,x0,1
    800000ac:	01f51513          	slli	x10,x10,0x1f
    800000b0:	00055863          	bge	x10,x0,800000c0 <reset_vector+0x74>
    800000b4:	0ff0000f          	fence	iorw,iorw
    800000b8:	00100193          	addi	x3,x0,1
    800000bc:	00000073          	ecall
    800000c0:	80000297          	auipc	x5,0x80000
    800000c4:	f4028293          	addi	x5,x5,-192 # 0 <_start-0x80000000>
    800000c8:	00028e63          	beq	x5,x0,800000e4 <reset_vector+0x98>
    800000cc:	10529073          	csrrw	x0,stvec,x5
    800000d0:	0000b2b7          	lui	x5,0xb
    800000d4:	1092829b          	addiw	x5,x5,265
    800000d8:	30229073          	csrrw	x0,medeleg,x5
    800000dc:	30202373          	csrrs	x6,medeleg,x0
    800000e0:	f4629ee3          	bne	x5,x6,8000003c <handle_exception>
    800000e4:	30005073          	csrrwi	x0,mstatus,0
    800000e8:	00002537          	lui	x10,0x2
    800000ec:	30052073          	csrrs	x0,mstatus,x10
    800000f0:	00305073          	csrrwi	x0,fcsr,0
    800000f4:	00000297          	auipc	x5,0x0
    800000f8:	01428293          	addi	x5,x5,20 # 80000108 <test_2>
    800000fc:	34129073          	csrrw	x0,mepc,x5
    80000100:	f1402573          	csrrs	x10,mhartid,x0
    80000104:	30200073          	mret

0000000080000108 <test_2>:
    80000108:	00200193          	addi	x3,x0,2
    8000010c:	00002517          	auipc	x10,0x2
    80000110:	ef450513          	addi	x10,x10,-268 # 80002000 <test_2_data>
    80000114:	00053683          	ld	x13,0(x10)
    80000118:	00200513          	addi	x10,x0,2
    8000011c:	d2050053          	fcvt.d.w	f0,x10
    80000120:	00101073          	fsflags	x0
    80000124:	e2000553          	fmv.x.d	x10,f0
    80000128:	1ad51263          	bne	x10,x13,800002cc <fail>

000000008000012c <test_3>:
    8000012c:	00300193          	addi	x3,x0,3
    80000130:	00002517          	auipc	x10,0x2
    80000134:	ed850513          	addi	x10,x10,-296 # 80002008 <test_3_data>
    80000138:	00053683          	ld	x13,0(x10)
    8000013c:	ffe00513          	addi	x10,x0,-2
    80000140:	d2050053          	fcvt.d.w	f0,x10
    80000144:	00101073          	fsflags	x0
    80000148:	e2000553          	fmv.x.d	x10,f0
    8000014c:	18d51063          	bne	x10,x13,800002cc <fail>

0000000080000150 <test_4>:
    80000150:	00400193          	addi	x3,x0,4
    80000154:	00002517          	auipc	x10,0x2
    80000158:	ebc50513          	addi	x10,x10,-324 # 80002010 <test_4_data>
    8000015c:	00053683          	ld	x13,0(x10)
    80000160:	00200513          	addi	x10,x0,2
    80000164:	d2150053          	fcvt.d.wu	f0,x10
    80000168:	00101073          	fsflags	x0
    8000016c:	e2000553          	fmv.x.d	x10,f0
    80000170:	14d51e63          	bne	x10,x13,800002cc <fail>

0000000080000174 <test_5>:
    80000174:	00500193          	addi	x3,x0,5
    80000178:	00002517          	auipc	x10,0x2
    8000017c:	ea050513          	addi	x10,x10,-352 # 80002018 <test_5_data>
    80000180:	00053683          	ld	x13,0(x10)
    80000184:	ffe00513          	addi	x10,x0,-2
    80000188:	d2150053          	fcvt.d.wu	f0,x10
    8000018c:	00101073          	fsflags	x0
    80000190:	e2000553          	fmv.x.d	x10,f0
    80000194:	12d51c63          	bne	x10,x13,800002cc <fail>

0000000080000198 <test_6>:
    80000198:	00600193          	addi	x3,x0,6
    8000019c:	00002517          	auipc	x10,0x2
    800001a0:	e8450513          	addi	x10,x10,-380 # 80002020 <test_6_data>
    800001a4:	00053683          	ld	x13,0(x10)
    800001a8:	00200513          	addi	x10,x0,2
    800001ac:	d2257053          	fcvt.d.l	f0,x10
    800001b0:	00101073          	fsflags	x0
    800001b4:	e2000553          	fmv.x.d	x10,f0
    800001b8:	10d51a63          	bne	x10,x13,800002cc <fail>

00000000800001bc <test_7>:
    800001bc:	00700193          	addi	x3,x0,7
    800001c0:	00002517          	auipc	x10,0x2
    800001c4:	e6850513          	addi	x10,x10,-408 # 80002028 <test_7_data>
    800001c8:	00053683          	ld	x13,0(x10)
    800001cc:	ffe00513          	addi	x10,x0,-2
    800001d0:	d2257053          	fcvt.d.l	f0,x10
    800001d4:	00101073          	fsflags	x0
    800001d8:	e2000553          	fmv.x.d	x10,f0
    800001dc:	0ed51863          	bne	x10,x13,800002cc <fail>

00000000800001e0 <test_8>:
    800001e0:	00800193          	addi	x3,x0,8
    800001e4:	00002517          	auipc	x10,0x2
    800001e8:	e4c50513          	addi	x10,x10,-436 # 80002030 <test_8_data>
    800001ec:	00053683          	ld	x13,0(x10)
    800001f0:	00200513          	addi	x10,x0,2
    800001f4:	d2357053          	fcvt.d.lu	f0,x10
    800001f8:	00101073          	fsflags	x0
    800001fc:	e2000553          	fmv.x.d	x10,f0
    80000200:	0cd51663          	bne	x10,x13,800002cc <fail>

0000000080000204 <test_9>:
    80000204:	00900193          	addi	x3,x0,9
    80000208:	00002517          	auipc	x10,0x2
    8000020c:	e3050513          	addi	x10,x10,-464 # 80002038 <test_9_data>
    80000210:	00053683          	ld	x13,0(x10)
    80000214:	ffe00513          	addi	x10,x0,-2
    80000218:	d2357053          	fcvt.d.lu	f0,x10
    8000021c:	00101073          	fsflags	x0
    80000220:	e2000553          	fmv.x.d	x10,f0
    80000224:	0ad51463          	bne	x10,x13,800002cc <fail>

0000000080000228 <test_10>:
    80000228:	00a00193          	addi	x3,x0,10
    8000022c:	00002517          	auipc	x10,0x2
    80000230:	e1450513          	addi	x10,x10,-492 # 80002040 <test_10_data>
    80000234:	00053007          	fld	f0,0(x10)
    80000238:	00853087          	fld	f1,8(x10)
    8000023c:	01053107          	fld	f2,16(x10)
    80000240:	01853683          	ld	x13,24(x10)
    80000244:	401071d3          	fcvt.s.d	f3,f0
    80000248:	420181d3          	fcvt.d.s	f3,f3
    8000024c:	e2018553          	fmv.x.d	x10,f3
    80000250:	001015f3          	fsflags	x11,x0
    80000254:	00000613          	addi	x12,x0,0
    80000258:	06d51a63          	bne	x10,x13,800002cc <fail>
    8000025c:	06c59863          	bne	x11,x12,800002cc <fail>

0000000080000260 <test_11>:
    80000260:	00b00193          	addi	x3,x0,11
    80000264:	00002517          	auipc	x10,0x2
    80000268:	dfc50513          	addi	x10,x10,-516 # 80002060 <test_11_data>
    8000026c:	00052007          	flw	f0,0(x10)
    80000270:	00452087          	flw	f1,4(x10)
    80000274:	00852107          	flw	f2,8(x10)
    80000278:	00c52683          	lw	x13,12(x10)
    8000027c:	420001d3          	fcvt.d.s	f3,f0
    80000280:	4011f1d3          	fcvt.s.d	f3,f3
    80000284:	e0018553          	fmv.x.s	x10,f3
    80000288:	001015f3          	fsflags	x11,x0
    8000028c:	00000613          	addi	x12,x0,0
    80000290:	02d51e63          	bne	x10,x13,800002cc <fail>
    80000294:	02c59c63          	bne	x11,x12,800002cc <fail>

0000000080000298 <test_12>:
    80000298:	00002597          	auipc	x11,0x2
    8000029c:	dd858593          	addi	x11,x11,-552 # 80002070 <begin_signature>
    800002a0:	0005b603          	ld	x12,0(x11)
    800002a4:	f2060153          	fmv.d.x	f2,x12
    800002a8:	40117153          	fcvt.s.d	f2,f2
    800002ac:	42010153          	fcvt.d.s	f2,f2
    800002b0:	e2010553          	fmv.x.d	x10,f2
    800002b4:	00001eb7          	lui	x29,0x1
    800002b8:	fffe8e9b          	addiw	x29,x29,-1
    800002bc:	033e9e93          	slli	x29,x29,0x33
    800002c0:	00c00193          	addi	x3,x0,12
    800002c4:	01d51463          	bne	x10,x29,800002cc <fail>
    800002c8:	00301c63          	bne	x0,x3,800002e0 <pass>

00000000800002cc <fail>:
    800002cc:	0ff0000f          	fence	iorw,iorw
    800002d0:	00018063          	beq	x3,x0,800002d0 <fail+0x4>
    800002d4:	00119193          	slli	x3,x3,0x1
    800002d8:	0011e193          	ori	x3,x3,1
    800002dc:	00000073          	ecall

00000000800002e0 <pass>:
    800002e0:	0ff0000f          	fence	iorw,iorw
    800002e4:	00100193          	addi	x3,x0,1
    800002e8:	00000073          	ecall
    800002ec:	c0001073          	unimp
	...
