
rv64ui-p-lw:     file format elf64-littleriscv


Disassembly of section .text.init:

0000000080000000 <_start>:
    80000000:	04c0006f          	jal	x0,8000004c <reset_vector>

0000000080000004 <trap_vector>:
    80000004:	34202f73          	csrrs	x30,mcause,x0
    80000008:	00800f93          	addi	x31,x0,8
    8000000c:	03ff0a63          	beq	x30,x31,80000040 <write_tohost>
    80000010:	00900f93          	addi	x31,x0,9
    80000014:	03ff0663          	beq	x30,x31,80000040 <write_tohost>
    80000018:	00b00f93          	addi	x31,x0,11
    8000001c:	03ff0263          	beq	x30,x31,80000040 <write_tohost>
    80000020:	80000f17          	auipc	x30,0x80000
    80000024:	fe0f0f13          	addi	x30,x30,-32 # 0 <_start-0x80000000>
    80000028:	000f0463          	beq	x30,x0,80000030 <trap_vector+0x2c>
    8000002c:	000f0067          	jalr	x0,0(x30)
    80000030:	34202f73          	csrrs	x30,mcause,x0
    80000034:	000f5463          	bge	x30,x0,8000003c <handle_exception>
    80000038:	0040006f          	jal	x0,8000003c <handle_exception>

000000008000003c <handle_exception>:
    8000003c:	5391e193          	ori	x3,x3,1337

0000000080000040 <write_tohost>:
    80000040:	00001f17          	auipc	x30,0x1
    80000044:	fc3f2023          	sw	x3,-64(x30) # 80001000 <tohost>
    80000048:	ff9ff06f          	jal	x0,80000040 <write_tohost>

000000008000004c <reset_vector>:
    8000004c:	f1402573          	csrrs	x10,mhartid,x0
    80000050:	00051063          	bne	x10,x0,80000050 <reset_vector+0x4>
    80000054:	00000297          	auipc	x5,0x0
    80000058:	01028293          	addi	x5,x5,16 # 80000064 <reset_vector+0x18>
    8000005c:	30529073          	csrrw	x0,mtvec,x5
    80000060:	18005073          	csrrwi	x0,satp,0
    80000064:	00000297          	auipc	x5,0x0
    80000068:	01c28293          	addi	x5,x5,28 # 80000080 <reset_vector+0x34>
    8000006c:	30529073          	csrrw	x0,mtvec,x5
    80000070:	fff00293          	addi	x5,x0,-1
    80000074:	3b029073          	csrrw	x0,pmpaddr0,x5
    80000078:	01f00293          	addi	x5,x0,31
    8000007c:	3a029073          	csrrw	x0,pmpcfg0,x5
    80000080:	00000297          	auipc	x5,0x0
    80000084:	01828293          	addi	x5,x5,24 # 80000098 <reset_vector+0x4c>
    80000088:	30529073          	csrrw	x0,mtvec,x5
    8000008c:	30205073          	csrrwi	x0,medeleg,0
    80000090:	30305073          	csrrwi	x0,mideleg,0
    80000094:	30405073          	csrrwi	x0,mie,0
    80000098:	00000193          	addi	x3,x0,0
    8000009c:	00000297          	auipc	x5,0x0
    800000a0:	f6828293          	addi	x5,x5,-152 # 80000004 <trap_vector>
    800000a4:	30529073          	csrrw	x0,mtvec,x5
    800000a8:	00100513          	addi	x10,x0,1
    800000ac:	01f51513          	slli	x10,x10,0x1f
    800000b0:	00055863          	bge	x10,x0,800000c0 <reset_vector+0x74>
    800000b4:	0ff0000f          	fence	iorw,iorw
    800000b8:	00100193          	addi	x3,x0,1
    800000bc:	00000073          	ecall
    800000c0:	80000297          	auipc	x5,0x80000
    800000c4:	f4028293          	addi	x5,x5,-192 # 0 <_start-0x80000000>
    800000c8:	00028e63          	beq	x5,x0,800000e4 <reset_vector+0x98>
    800000cc:	10529073          	csrrw	x0,stvec,x5
    800000d0:	0000b2b7          	lui	x5,0xb
    800000d4:	1092829b          	addiw	x5,x5,265
    800000d8:	30229073          	csrrw	x0,medeleg,x5
    800000dc:	30202373          	csrrs	x6,medeleg,x0
    800000e0:	f4629ee3          	bne	x5,x6,8000003c <handle_exception>
    800000e4:	30005073          	csrrwi	x0,mstatus,0
    800000e8:	00000297          	auipc	x5,0x0
    800000ec:	01428293          	addi	x5,x5,20 # 800000fc <test_2>
    800000f0:	34129073          	csrrw	x0,mepc,x5
    800000f4:	f1402573          	csrrs	x10,mhartid,x0
    800000f8:	30200073          	mret

00000000800000fc <test_2>:
    800000fc:	00002097          	auipc	x1,0x2
    80000100:	f0408093          	addi	x1,x1,-252 # 80002000 <begin_signature>
    80000104:	0000af03          	lw	x30,0(x1)
    80000108:	00ff0eb7          	lui	x29,0xff0
    8000010c:	0ffe8e9b          	addiw	x29,x29,255
    80000110:	00200193          	addi	x3,x0,2
    80000114:	27df1a63          	bne	x30,x29,80000388 <fail>

0000000080000118 <test_3>:
    80000118:	00002097          	auipc	x1,0x2
    8000011c:	ee808093          	addi	x1,x1,-280 # 80002000 <begin_signature>
    80000120:	0040af03          	lw	x30,4(x1)
    80000124:	ff010eb7          	lui	x29,0xff010
    80000128:	f00e8e9b          	addiw	x29,x29,-256
    8000012c:	00300193          	addi	x3,x0,3
    80000130:	25df1c63          	bne	x30,x29,80000388 <fail>

0000000080000134 <test_4>:
    80000134:	00002097          	auipc	x1,0x2
    80000138:	ecc08093          	addi	x1,x1,-308 # 80002000 <begin_signature>
    8000013c:	0080af03          	lw	x30,8(x1)
    80000140:	0ff01eb7          	lui	x29,0xff01
    80000144:	ff0e8e9b          	addiw	x29,x29,-16
    80000148:	00400193          	addi	x3,x0,4
    8000014c:	23df1e63          	bne	x30,x29,80000388 <fail>

0000000080000150 <test_5>:
    80000150:	00002097          	auipc	x1,0x2
    80000154:	eb008093          	addi	x1,x1,-336 # 80002000 <begin_signature>
    80000158:	00c0af03          	lw	x30,12(x1)
    8000015c:	f00ffeb7          	lui	x29,0xf00ff
    80000160:	00fe8e9b          	addiw	x29,x29,15
    80000164:	00500193          	addi	x3,x0,5
    80000168:	23df1063          	bne	x30,x29,80000388 <fail>

000000008000016c <test_6>:
    8000016c:	00002097          	auipc	x1,0x2
    80000170:	ea008093          	addi	x1,x1,-352 # 8000200c <tdat4>
    80000174:	ff40af03          	lw	x30,-12(x1)
    80000178:	00ff0eb7          	lui	x29,0xff0
    8000017c:	0ffe8e9b          	addiw	x29,x29,255
    80000180:	00600193          	addi	x3,x0,6
    80000184:	21df1263          	bne	x30,x29,80000388 <fail>

0000000080000188 <test_7>:
    80000188:	00002097          	auipc	x1,0x2
    8000018c:	e8408093          	addi	x1,x1,-380 # 8000200c <tdat4>
    80000190:	ff80af03          	lw	x30,-8(x1)
    80000194:	ff010eb7          	lui	x29,0xff010
    80000198:	f00e8e9b          	addiw	x29,x29,-256
    8000019c:	00700193          	addi	x3,x0,7
    800001a0:	1fdf1463          	bne	x30,x29,80000388 <fail>

00000000800001a4 <test_8>:
    800001a4:	00002097          	auipc	x1,0x2
    800001a8:	e6808093          	addi	x1,x1,-408 # 8000200c <tdat4>
    800001ac:	ffc0af03          	lw	x30,-4(x1)
    800001b0:	0ff01eb7          	lui	x29,0xff01
    800001b4:	ff0e8e9b          	addiw	x29,x29,-16
    800001b8:	00800193          	addi	x3,x0,8
    800001bc:	1ddf1663          	bne	x30,x29,80000388 <fail>

00000000800001c0 <test_9>:
    800001c0:	00002097          	auipc	x1,0x2
    800001c4:	e4c08093          	addi	x1,x1,-436 # 8000200c <tdat4>
    800001c8:	0000af03          	lw	x30,0(x1)
    800001cc:	f00ffeb7          	lui	x29,0xf00ff
    800001d0:	00fe8e9b          	addiw	x29,x29,15
    800001d4:	00900193          	addi	x3,x0,9
    800001d8:	1bdf1863          	bne	x30,x29,80000388 <fail>

00000000800001dc <test_10>:
    800001dc:	00002097          	auipc	x1,0x2
    800001e0:	e2408093          	addi	x1,x1,-476 # 80002000 <begin_signature>
    800001e4:	fe008093          	addi	x1,x1,-32
    800001e8:	0200a283          	lw	x5,32(x1)
    800001ec:	00ff0eb7          	lui	x29,0xff0
    800001f0:	0ffe8e9b          	addiw	x29,x29,255
    800001f4:	00a00193          	addi	x3,x0,10
    800001f8:	19d29863          	bne	x5,x29,80000388 <fail>

00000000800001fc <test_11>:
    800001fc:	00002097          	auipc	x1,0x2
    80000200:	e0408093          	addi	x1,x1,-508 # 80002000 <begin_signature>
    80000204:	ffd08093          	addi	x1,x1,-3
    80000208:	0070a283          	lw	x5,7(x1)
    8000020c:	ff010eb7          	lui	x29,0xff010
    80000210:	f00e8e9b          	addiw	x29,x29,-256
    80000214:	00b00193          	addi	x3,x0,11
    80000218:	17d29863          	bne	x5,x29,80000388 <fail>

000000008000021c <test_12>:
    8000021c:	00c00193          	addi	x3,x0,12
    80000220:	00000213          	addi	x4,x0,0
    80000224:	00002097          	auipc	x1,0x2
    80000228:	de008093          	addi	x1,x1,-544 # 80002004 <tdat2>
    8000022c:	0040af03          	lw	x30,4(x1)
    80000230:	000f0313          	addi	x6,x30,0
    80000234:	0ff01eb7          	lui	x29,0xff01
    80000238:	ff0e8e9b          	addiw	x29,x29,-16
    8000023c:	15d31663          	bne	x6,x29,80000388 <fail>
    80000240:	00120213          	addi	x4,x4,1 # 1 <_start-0x7fffffff>
    80000244:	00200293          	addi	x5,x0,2
    80000248:	fc521ee3          	bne	x4,x5,80000224 <test_12+0x8>

000000008000024c <test_13>:
    8000024c:	00d00193          	addi	x3,x0,13
    80000250:	00000213          	addi	x4,x0,0
    80000254:	00002097          	auipc	x1,0x2
    80000258:	db408093          	addi	x1,x1,-588 # 80002008 <tdat3>
    8000025c:	0040af03          	lw	x30,4(x1)
    80000260:	00000013          	addi	x0,x0,0
    80000264:	000f0313          	addi	x6,x30,0
    80000268:	f00ffeb7          	lui	x29,0xf00ff
    8000026c:	00fe8e9b          	addiw	x29,x29,15
    80000270:	11d31c63          	bne	x6,x29,80000388 <fail>
    80000274:	00120213          	addi	x4,x4,1 # 1 <_start-0x7fffffff>
    80000278:	00200293          	addi	x5,x0,2
    8000027c:	fc521ce3          	bne	x4,x5,80000254 <test_13+0x8>

0000000080000280 <test_14>:
    80000280:	00e00193          	addi	x3,x0,14
    80000284:	00000213          	addi	x4,x0,0
    80000288:	00002097          	auipc	x1,0x2
    8000028c:	d7808093          	addi	x1,x1,-648 # 80002000 <begin_signature>
    80000290:	0040af03          	lw	x30,4(x1)
    80000294:	00000013          	addi	x0,x0,0
    80000298:	00000013          	addi	x0,x0,0
    8000029c:	000f0313          	addi	x6,x30,0
    800002a0:	ff010eb7          	lui	x29,0xff010
    800002a4:	f00e8e9b          	addiw	x29,x29,-256
    800002a8:	0fd31063          	bne	x6,x29,80000388 <fail>
    800002ac:	00120213          	addi	x4,x4,1 # 1 <_start-0x7fffffff>
    800002b0:	00200293          	addi	x5,x0,2
    800002b4:	fc521ae3          	bne	x4,x5,80000288 <test_14+0x8>

00000000800002b8 <test_15>:
    800002b8:	00f00193          	addi	x3,x0,15
    800002bc:	00000213          	addi	x4,x0,0
    800002c0:	00002097          	auipc	x1,0x2
    800002c4:	d4408093          	addi	x1,x1,-700 # 80002004 <tdat2>
    800002c8:	0040af03          	lw	x30,4(x1)
    800002cc:	0ff01eb7          	lui	x29,0xff01
    800002d0:	ff0e8e9b          	addiw	x29,x29,-16
    800002d4:	0bdf1a63          	bne	x30,x29,80000388 <fail>
    800002d8:	00120213          	addi	x4,x4,1 # 1 <_start-0x7fffffff>
    800002dc:	00200293          	addi	x5,x0,2
    800002e0:	fe5210e3          	bne	x4,x5,800002c0 <test_15+0x8>

00000000800002e4 <test_16>:
    800002e4:	01000193          	addi	x3,x0,16
    800002e8:	00000213          	addi	x4,x0,0
    800002ec:	00002097          	auipc	x1,0x2
    800002f0:	d1c08093          	addi	x1,x1,-740 # 80002008 <tdat3>
    800002f4:	00000013          	addi	x0,x0,0
    800002f8:	0040af03          	lw	x30,4(x1)
    800002fc:	f00ffeb7          	lui	x29,0xf00ff
    80000300:	00fe8e9b          	addiw	x29,x29,15
    80000304:	09df1263          	bne	x30,x29,80000388 <fail>
    80000308:	00120213          	addi	x4,x4,1 # 1 <_start-0x7fffffff>
    8000030c:	00200293          	addi	x5,x0,2
    80000310:	fc521ee3          	bne	x4,x5,800002ec <test_16+0x8>

0000000080000314 <test_17>:
    80000314:	01100193          	addi	x3,x0,17
    80000318:	00000213          	addi	x4,x0,0
    8000031c:	00002097          	auipc	x1,0x2
    80000320:	ce408093          	addi	x1,x1,-796 # 80002000 <begin_signature>
    80000324:	00000013          	addi	x0,x0,0
    80000328:	00000013          	addi	x0,x0,0
    8000032c:	0040af03          	lw	x30,4(x1)
    80000330:	ff010eb7          	lui	x29,0xff010
    80000334:	f00e8e9b          	addiw	x29,x29,-256
    80000338:	05df1863          	bne	x30,x29,80000388 <fail>
    8000033c:	00120213          	addi	x4,x4,1 # 1 <_start-0x7fffffff>
    80000340:	00200293          	addi	x5,x0,2
    80000344:	fc521ce3          	bne	x4,x5,8000031c <test_17+0x8>

0000000080000348 <test_18>:
    80000348:	00002297          	auipc	x5,0x2
    8000034c:	cb828293          	addi	x5,x5,-840 # 80002000 <begin_signature>
    80000350:	0002a103          	lw	x2,0(x5)
    80000354:	00200113          	addi	x2,x0,2
    80000358:	00200e93          	addi	x29,x0,2
    8000035c:	01200193          	addi	x3,x0,18
    80000360:	03d11463          	bne	x2,x29,80000388 <fail>

0000000080000364 <test_19>:
    80000364:	00002297          	auipc	x5,0x2
    80000368:	c9c28293          	addi	x5,x5,-868 # 80002000 <begin_signature>
    8000036c:	0002a103          	lw	x2,0(x5)
    80000370:	00000013          	addi	x0,x0,0
    80000374:	00200113          	addi	x2,x0,2
    80000378:	00200e93          	addi	x29,x0,2
    8000037c:	01300193          	addi	x3,x0,19
    80000380:	01d11463          	bne	x2,x29,80000388 <fail>
    80000384:	00301c63          	bne	x0,x3,8000039c <pass>

0000000080000388 <fail>:
    80000388:	0ff0000f          	fence	iorw,iorw
    8000038c:	00018063          	beq	x3,x0,8000038c <fail+0x4>
    80000390:	00119193          	slli	x3,x3,0x1
    80000394:	0011e193          	ori	x3,x3,1
    80000398:	00000073          	ecall

000000008000039c <pass>:
    8000039c:	0ff0000f          	fence	iorw,iorw
    800003a0:	00100193          	addi	x3,x0,1
    800003a4:	00000073          	ecall
    800003a8:	c0001073          	unimp
	...
