
rv64ui-p-andi:     file format elf64-littleriscv


Disassembly of section .text.init:

0000000080000000 <_start>:
    80000000:	04c0006f          	jal	x0,8000004c <reset_vector>

0000000080000004 <trap_vector>:
    80000004:	34202f73          	csrrs	x30,mcause,x0
    80000008:	00800f93          	addi	x31,x0,8
    8000000c:	03ff0a63          	beq	x30,x31,80000040 <write_tohost>
    80000010:	00900f93          	addi	x31,x0,9
    80000014:	03ff0663          	beq	x30,x31,80000040 <write_tohost>
    80000018:	00b00f93          	addi	x31,x0,11
    8000001c:	03ff0263          	beq	x30,x31,80000040 <write_tohost>
    80000020:	80000f17          	auipc	x30,0x80000
    80000024:	fe0f0f13          	addi	x30,x30,-32 # 0 <_start-0x80000000>
    80000028:	000f0463          	beq	x30,x0,80000030 <trap_vector+0x2c>
    8000002c:	000f0067          	jalr	x0,0(x30)
    80000030:	34202f73          	csrrs	x30,mcause,x0
    80000034:	000f5463          	bge	x30,x0,8000003c <handle_exception>
    80000038:	0040006f          	jal	x0,8000003c <handle_exception>

000000008000003c <handle_exception>:
    8000003c:	5391e193          	ori	x3,x3,1337

0000000080000040 <write_tohost>:
    80000040:	00001f17          	auipc	x30,0x1
    80000044:	fc3f2023          	sw	x3,-64(x30) # 80001000 <tohost>
    80000048:	ff9ff06f          	jal	x0,80000040 <write_tohost>

000000008000004c <reset_vector>:
    8000004c:	f1402573          	csrrs	x10,mhartid,x0
    80000050:	00051063          	bne	x10,x0,80000050 <reset_vector+0x4>
    80000054:	00000297          	auipc	x5,0x0
    80000058:	01028293          	addi	x5,x5,16 # 80000064 <reset_vector+0x18>
    8000005c:	30529073          	csrrw	x0,mtvec,x5
    80000060:	18005073          	csrrwi	x0,satp,0
    80000064:	00000297          	auipc	x5,0x0
    80000068:	01c28293          	addi	x5,x5,28 # 80000080 <reset_vector+0x34>
    8000006c:	30529073          	csrrw	x0,mtvec,x5
    80000070:	fff00293          	addi	x5,x0,-1
    80000074:	3b029073          	csrrw	x0,pmpaddr0,x5
    80000078:	01f00293          	addi	x5,x0,31
    8000007c:	3a029073          	csrrw	x0,pmpcfg0,x5
    80000080:	00000297          	auipc	x5,0x0
    80000084:	01828293          	addi	x5,x5,24 # 80000098 <reset_vector+0x4c>
    80000088:	30529073          	csrrw	x0,mtvec,x5
    8000008c:	30205073          	csrrwi	x0,medeleg,0
    80000090:	30305073          	csrrwi	x0,mideleg,0
    80000094:	30405073          	csrrwi	x0,mie,0
    80000098:	00000193          	addi	x3,x0,0
    8000009c:	00000297          	auipc	x5,0x0
    800000a0:	f6828293          	addi	x5,x5,-152 # 80000004 <trap_vector>
    800000a4:	30529073          	csrrw	x0,mtvec,x5
    800000a8:	00100513          	addi	x10,x0,1
    800000ac:	01f51513          	slli	x10,x10,0x1f
    800000b0:	00055863          	bge	x10,x0,800000c0 <reset_vector+0x74>
    800000b4:	0ff0000f          	fence	iorw,iorw
    800000b8:	00100193          	addi	x3,x0,1
    800000bc:	00000073          	ecall
    800000c0:	80000297          	auipc	x5,0x80000
    800000c4:	f4028293          	addi	x5,x5,-192 # 0 <_start-0x80000000>
    800000c8:	00028e63          	beq	x5,x0,800000e4 <reset_vector+0x98>
    800000cc:	10529073          	csrrw	x0,stvec,x5
    800000d0:	0000b2b7          	lui	x5,0xb
    800000d4:	1092829b          	addiw	x5,x5,265
    800000d8:	30229073          	csrrw	x0,medeleg,x5
    800000dc:	30202373          	csrrs	x6,medeleg,x0
    800000e0:	f4629ee3          	bne	x5,x6,8000003c <handle_exception>
    800000e4:	30005073          	csrrwi	x0,mstatus,0
    800000e8:	00000297          	auipc	x5,0x0
    800000ec:	01428293          	addi	x5,x5,20 # 800000fc <test_2>
    800000f0:	34129073          	csrrw	x0,mepc,x5
    800000f4:	f1402573          	csrrs	x10,mhartid,x0
    800000f8:	30200073          	mret

00000000800000fc <test_2>:
    800000fc:	000100b7          	lui	x1,0x10
    80000100:	f010809b          	addiw	x1,x1,-255
    80000104:	01009093          	slli	x1,x1,0x10
    80000108:	f0008093          	addi	x1,x1,-256 # ff00 <_start-0x7fff0100>
    8000010c:	f0f0ff13          	andi	x30,x1,-241
    80000110:	00010eb7          	lui	x29,0x10
    80000114:	f01e8e9b          	addiw	x29,x29,-255
    80000118:	010e9e93          	slli	x29,x29,0x10
    8000011c:	f00e8e93          	addi	x29,x29,-256 # ff00 <_start-0x7fff0100>
    80000120:	00200193          	addi	x3,x0,2
    80000124:	1ddf1863          	bne	x30,x29,800002f4 <fail>

0000000080000128 <test_3>:
    80000128:	0ff010b7          	lui	x1,0xff01
    8000012c:	ff00809b          	addiw	x1,x1,-16
    80000130:	0f00ff13          	andi	x30,x1,240
    80000134:	0f000e93          	addi	x29,x0,240
    80000138:	00300193          	addi	x3,x0,3
    8000013c:	1bdf1c63          	bne	x30,x29,800002f4 <fail>

0000000080000140 <test_4>:
    80000140:	00ff00b7          	lui	x1,0xff0
    80000144:	0ff0809b          	addiw	x1,x1,255
    80000148:	70f0ff13          	andi	x30,x1,1807
    8000014c:	00f00e93          	addi	x29,x0,15
    80000150:	00400193          	addi	x3,x0,4
    80000154:	1bdf1063          	bne	x30,x29,800002f4 <fail>

0000000080000158 <test_5>:
    80000158:	000f00b7          	lui	x1,0xf0
    8000015c:	0ff0809b          	addiw	x1,x1,255
    80000160:	00c09093          	slli	x1,x1,0xc
    80000164:	00f08093          	addi	x1,x1,15 # f000f <_start-0x7ff0fff1>
    80000168:	0f00ff13          	andi	x30,x1,240
    8000016c:	00000e93          	addi	x29,x0,0
    80000170:	00500193          	addi	x3,x0,5
    80000174:	19df1063          	bne	x30,x29,800002f4 <fail>

0000000080000178 <test_6>:
    80000178:	000100b7          	lui	x1,0x10
    8000017c:	f010809b          	addiw	x1,x1,-255
    80000180:	01009093          	slli	x1,x1,0x10
    80000184:	f0008093          	addi	x1,x1,-256 # ff00 <_start-0x7fff0100>
    80000188:	0f00f093          	andi	x1,x1,240
    8000018c:	00000e93          	addi	x29,x0,0
    80000190:	00600193          	addi	x3,x0,6
    80000194:	17d09063          	bne	x1,x29,800002f4 <fail>

0000000080000198 <test_7>:
    80000198:	00000213          	addi	x4,x0,0
    8000019c:	0ff010b7          	lui	x1,0xff01
    800001a0:	ff00809b          	addiw	x1,x1,-16
    800001a4:	70f0ff13          	andi	x30,x1,1807
    800001a8:	000f0313          	addi	x6,x30,0
    800001ac:	00120213          	addi	x4,x4,1 # 1 <_start-0x7fffffff>
    800001b0:	00200293          	addi	x5,x0,2
    800001b4:	fe5214e3          	bne	x4,x5,8000019c <test_7+0x4>
    800001b8:	70000e93          	addi	x29,x0,1792
    800001bc:	00700193          	addi	x3,x0,7
    800001c0:	13d31a63          	bne	x6,x29,800002f4 <fail>

00000000800001c4 <test_8>:
    800001c4:	00000213          	addi	x4,x0,0
    800001c8:	00ff00b7          	lui	x1,0xff0
    800001cc:	0ff0809b          	addiw	x1,x1,255
    800001d0:	0f00ff13          	andi	x30,x1,240
    800001d4:	00000013          	addi	x0,x0,0
    800001d8:	000f0313          	addi	x6,x30,0
    800001dc:	00120213          	addi	x4,x4,1 # 1 <_start-0x7fffffff>
    800001e0:	00200293          	addi	x5,x0,2
    800001e4:	fe5212e3          	bne	x4,x5,800001c8 <test_8+0x4>
    800001e8:	0f000e93          	addi	x29,x0,240
    800001ec:	00800193          	addi	x3,x0,8
    800001f0:	11d31263          	bne	x6,x29,800002f4 <fail>

00000000800001f4 <test_9>:
    800001f4:	00000213          	addi	x4,x0,0
    800001f8:	000f00b7          	lui	x1,0xf0
    800001fc:	0ff0809b          	addiw	x1,x1,255
    80000200:	00c09093          	slli	x1,x1,0xc
    80000204:	00f08093          	addi	x1,x1,15 # f000f <_start-0x7ff0fff1>
    80000208:	f0f0ff13          	andi	x30,x1,-241
    8000020c:	00000013          	addi	x0,x0,0
    80000210:	00000013          	addi	x0,x0,0
    80000214:	000f0313          	addi	x6,x30,0
    80000218:	00120213          	addi	x4,x4,1 # 1 <_start-0x7fffffff>
    8000021c:	00200293          	addi	x5,x0,2
    80000220:	fc521ce3          	bne	x4,x5,800001f8 <test_9+0x4>
    80000224:	000f0eb7          	lui	x29,0xf0
    80000228:	0ffe8e9b          	addiw	x29,x29,255
    8000022c:	00ce9e93          	slli	x29,x29,0xc
    80000230:	00fe8e93          	addi	x29,x29,15 # f000f <_start-0x7ff0fff1>
    80000234:	00900193          	addi	x3,x0,9
    80000238:	0bd31e63          	bne	x6,x29,800002f4 <fail>

000000008000023c <test_10>:
    8000023c:	00000213          	addi	x4,x0,0
    80000240:	0ff010b7          	lui	x1,0xff01
    80000244:	ff00809b          	addiw	x1,x1,-16
    80000248:	70f0ff13          	andi	x30,x1,1807
    8000024c:	00120213          	addi	x4,x4,1 # 1 <_start-0x7fffffff>
    80000250:	00200293          	addi	x5,x0,2
    80000254:	fe5216e3          	bne	x4,x5,80000240 <test_10+0x4>
    80000258:	70000e93          	addi	x29,x0,1792
    8000025c:	00a00193          	addi	x3,x0,10
    80000260:	09df1a63          	bne	x30,x29,800002f4 <fail>

0000000080000264 <test_11>:
    80000264:	00000213          	addi	x4,x0,0
    80000268:	00ff00b7          	lui	x1,0xff0
    8000026c:	0ff0809b          	addiw	x1,x1,255
    80000270:	00000013          	addi	x0,x0,0
    80000274:	0f00ff13          	andi	x30,x1,240
    80000278:	00120213          	addi	x4,x4,1 # 1 <_start-0x7fffffff>
    8000027c:	00200293          	addi	x5,x0,2
    80000280:	fe5214e3          	bne	x4,x5,80000268 <test_11+0x4>
    80000284:	0f000e93          	addi	x29,x0,240
    80000288:	00b00193          	addi	x3,x0,11
    8000028c:	07df1463          	bne	x30,x29,800002f4 <fail>

0000000080000290 <test_12>:
    80000290:	00000213          	addi	x4,x0,0
    80000294:	000f00b7          	lui	x1,0xf0
    80000298:	0ff0809b          	addiw	x1,x1,255
    8000029c:	00c09093          	slli	x1,x1,0xc
    800002a0:	00f08093          	addi	x1,x1,15 # f000f <_start-0x7ff0fff1>
    800002a4:	00000013          	addi	x0,x0,0
    800002a8:	00000013          	addi	x0,x0,0
    800002ac:	70f0ff13          	andi	x30,x1,1807
    800002b0:	00120213          	addi	x4,x4,1 # 1 <_start-0x7fffffff>
    800002b4:	00200293          	addi	x5,x0,2
    800002b8:	fc521ee3          	bne	x4,x5,80000294 <test_12+0x4>
    800002bc:	00f00e93          	addi	x29,x0,15
    800002c0:	00c00193          	addi	x3,x0,12
    800002c4:	03df1863          	bne	x30,x29,800002f4 <fail>

00000000800002c8 <test_13>:
    800002c8:	0f007093          	andi	x1,x0,240
    800002cc:	00000e93          	addi	x29,x0,0
    800002d0:	00d00193          	addi	x3,x0,13
    800002d4:	03d09063          	bne	x1,x29,800002f4 <fail>

00000000800002d8 <test_14>:
    800002d8:	00ff00b7          	lui	x1,0xff0
    800002dc:	0ff0809b          	addiw	x1,x1,255
    800002e0:	70f0f013          	andi	x0,x1,1807
    800002e4:	00000e93          	addi	x29,x0,0
    800002e8:	00e00193          	addi	x3,x0,14
    800002ec:	01d01463          	bne	x0,x29,800002f4 <fail>
    800002f0:	00301c63          	bne	x0,x3,80000308 <pass>

00000000800002f4 <fail>:
    800002f4:	0ff0000f          	fence	iorw,iorw
    800002f8:	00018063          	beq	x3,x0,800002f8 <fail+0x4>
    800002fc:	00119193          	slli	x3,x3,0x1
    80000300:	0011e193          	ori	x3,x3,1
    80000304:	00000073          	ecall

0000000080000308 <pass>:
    80000308:	0ff0000f          	fence	iorw,iorw
    8000030c:	00100193          	addi	x3,x0,1
    80000310:	00000073          	ecall
    80000314:	c0001073          	unimp
	...
