
rv64ui-p-srai:     file format elf64-littleriscv


Disassembly of section .text.init:

0000000080000000 <_start>:
    80000000:	04c0006f          	jal	x0,8000004c <reset_vector>

0000000080000004 <trap_vector>:
    80000004:	34202f73          	csrrs	x30,mcause,x0
    80000008:	00800f93          	addi	x31,x0,8
    8000000c:	03ff0a63          	beq	x30,x31,80000040 <write_tohost>
    80000010:	00900f93          	addi	x31,x0,9
    80000014:	03ff0663          	beq	x30,x31,80000040 <write_tohost>
    80000018:	00b00f93          	addi	x31,x0,11
    8000001c:	03ff0263          	beq	x30,x31,80000040 <write_tohost>
    80000020:	80000f17          	auipc	x30,0x80000
    80000024:	fe0f0f13          	addi	x30,x30,-32 # 0 <_start-0x80000000>
    80000028:	000f0463          	beq	x30,x0,80000030 <trap_vector+0x2c>
    8000002c:	000f0067          	jalr	x0,0(x30)
    80000030:	34202f73          	csrrs	x30,mcause,x0
    80000034:	000f5463          	bge	x30,x0,8000003c <handle_exception>
    80000038:	0040006f          	jal	x0,8000003c <handle_exception>

000000008000003c <handle_exception>:
    8000003c:	5391e193          	ori	x3,x3,1337

0000000080000040 <write_tohost>:
    80000040:	00001f17          	auipc	x30,0x1
    80000044:	fc3f2023          	sw	x3,-64(x30) # 80001000 <tohost>
    80000048:	ff9ff06f          	jal	x0,80000040 <write_tohost>

000000008000004c <reset_vector>:
    8000004c:	f1402573          	csrrs	x10,mhartid,x0
    80000050:	00051063          	bne	x10,x0,80000050 <reset_vector+0x4>
    80000054:	00000297          	auipc	x5,0x0
    80000058:	01028293          	addi	x5,x5,16 # 80000064 <reset_vector+0x18>
    8000005c:	30529073          	csrrw	x0,mtvec,x5
    80000060:	18005073          	csrrwi	x0,satp,0
    80000064:	00000297          	auipc	x5,0x0
    80000068:	01c28293          	addi	x5,x5,28 # 80000080 <reset_vector+0x34>
    8000006c:	30529073          	csrrw	x0,mtvec,x5
    80000070:	fff00293          	addi	x5,x0,-1
    80000074:	3b029073          	csrrw	x0,pmpaddr0,x5
    80000078:	01f00293          	addi	x5,x0,31
    8000007c:	3a029073          	csrrw	x0,pmpcfg0,x5
    80000080:	00000297          	auipc	x5,0x0
    80000084:	01828293          	addi	x5,x5,24 # 80000098 <reset_vector+0x4c>
    80000088:	30529073          	csrrw	x0,mtvec,x5
    8000008c:	30205073          	csrrwi	x0,medeleg,0
    80000090:	30305073          	csrrwi	x0,mideleg,0
    80000094:	30405073          	csrrwi	x0,mie,0
    80000098:	00000193          	addi	x3,x0,0
    8000009c:	00000297          	auipc	x5,0x0
    800000a0:	f6828293          	addi	x5,x5,-152 # 80000004 <trap_vector>
    800000a4:	30529073          	csrrw	x0,mtvec,x5
    800000a8:	00100513          	addi	x10,x0,1
    800000ac:	01f51513          	slli	x10,x10,0x1f
    800000b0:	00055863          	bge	x10,x0,800000c0 <reset_vector+0x74>
    800000b4:	0ff0000f          	fence	iorw,iorw
    800000b8:	00100193          	addi	x3,x0,1
    800000bc:	00000073          	ecall
    800000c0:	80000297          	auipc	x5,0x80000
    800000c4:	f4028293          	addi	x5,x5,-192 # 0 <_start-0x80000000>
    800000c8:	00028e63          	beq	x5,x0,800000e4 <reset_vector+0x98>
    800000cc:	10529073          	csrrw	x0,stvec,x5
    800000d0:	0000b2b7          	lui	x5,0xb
    800000d4:	1092829b          	addiw	x5,x5,265
    800000d8:	30229073          	csrrw	x0,medeleg,x5
    800000dc:	30202373          	csrrs	x6,medeleg,x0
    800000e0:	f4629ee3          	bne	x5,x6,8000003c <handle_exception>
    800000e4:	30005073          	csrrwi	x0,mstatus,0
    800000e8:	00000297          	auipc	x5,0x0
    800000ec:	01428293          	addi	x5,x5,20 # 800000fc <test_2>
    800000f0:	34129073          	csrrw	x0,mepc,x5
    800000f4:	f1402573          	csrrs	x10,mhartid,x0
    800000f8:	30200073          	mret

00000000800000fc <test_2>:
    800000fc:	fff0009b          	addiw	x1,x0,-1
    80000100:	02709093          	slli	x1,x1,0x27
    80000104:	4000df13          	srai	x30,x1,0x0
    80000108:	fff00e9b          	addiw	x29,x0,-1
    8000010c:	027e9e93          	slli	x29,x29,0x27
    80000110:	00200193          	addi	x3,x0,2
    80000114:	2bdf1463          	bne	x30,x29,800003bc <fail>

0000000080000118 <test_3>:
    80000118:	800000b7          	lui	x1,0x80000
    8000011c:	4010df13          	srai	x30,x1,0x1
    80000120:	c0000eb7          	lui	x29,0xc0000
    80000124:	00300193          	addi	x3,x0,3
    80000128:	29df1a63          	bne	x30,x29,800003bc <fail>

000000008000012c <test_4>:
    8000012c:	800000b7          	lui	x1,0x80000
    80000130:	4070df13          	srai	x30,x1,0x7
    80000134:	ff000eb7          	lui	x29,0xff000
    80000138:	00400193          	addi	x3,x0,4
    8000013c:	29df1063          	bne	x30,x29,800003bc <fail>

0000000080000140 <test_5>:
    80000140:	800000b7          	lui	x1,0x80000
    80000144:	40e0df13          	srai	x30,x1,0xe
    80000148:	fffe0eb7          	lui	x29,0xfffe0
    8000014c:	00500193          	addi	x3,x0,5
    80000150:	27df1663          	bne	x30,x29,800003bc <fail>

0000000080000154 <test_6>:
    80000154:	800000b7          	lui	x1,0x80000
    80000158:	0010809b          	addiw	x1,x1,1
    8000015c:	41f0df13          	srai	x30,x1,0x1f
    80000160:	fff00e93          	addi	x29,x0,-1
    80000164:	00600193          	addi	x3,x0,6
    80000168:	25df1a63          	bne	x30,x29,800003bc <fail>

000000008000016c <test_7>:
    8000016c:	800000b7          	lui	x1,0x80000
    80000170:	fff0809b          	addiw	x1,x1,-1
    80000174:	4000df13          	srai	x30,x1,0x0
    80000178:	80000eb7          	lui	x29,0x80000
    8000017c:	fffe8e9b          	addiw	x29,x29,-1
    80000180:	00700193          	addi	x3,x0,7
    80000184:	23df1c63          	bne	x30,x29,800003bc <fail>

0000000080000188 <test_8>:
    80000188:	800000b7          	lui	x1,0x80000
    8000018c:	fff0809b          	addiw	x1,x1,-1
    80000190:	4010df13          	srai	x30,x1,0x1
    80000194:	40000eb7          	lui	x29,0x40000
    80000198:	fffe8e9b          	addiw	x29,x29,-1
    8000019c:	00800193          	addi	x3,x0,8
    800001a0:	21df1e63          	bne	x30,x29,800003bc <fail>

00000000800001a4 <test_9>:
    800001a4:	800000b7          	lui	x1,0x80000
    800001a8:	fff0809b          	addiw	x1,x1,-1
    800001ac:	4070df13          	srai	x30,x1,0x7
    800001b0:	01000eb7          	lui	x29,0x1000
    800001b4:	fffe8e9b          	addiw	x29,x29,-1
    800001b8:	00900193          	addi	x3,x0,9
    800001bc:	21df1063          	bne	x30,x29,800003bc <fail>

00000000800001c0 <test_10>:
    800001c0:	800000b7          	lui	x1,0x80000
    800001c4:	fff0809b          	addiw	x1,x1,-1
    800001c8:	40e0df13          	srai	x30,x1,0xe
    800001cc:	00020eb7          	lui	x29,0x20
    800001d0:	fffe8e9b          	addiw	x29,x29,-1
    800001d4:	00a00193          	addi	x3,x0,10
    800001d8:	1fdf1263          	bne	x30,x29,800003bc <fail>

00000000800001dc <test_11>:
    800001dc:	800000b7          	lui	x1,0x80000
    800001e0:	fff0809b          	addiw	x1,x1,-1
    800001e4:	41f0df13          	srai	x30,x1,0x1f
    800001e8:	00000e93          	addi	x29,x0,0
    800001ec:	00b00193          	addi	x3,x0,11
    800001f0:	1ddf1663          	bne	x30,x29,800003bc <fail>

00000000800001f4 <test_12>:
    800001f4:	818180b7          	lui	x1,0x81818
    800001f8:	1810809b          	addiw	x1,x1,385
    800001fc:	4000df13          	srai	x30,x1,0x0
    80000200:	81818eb7          	lui	x29,0x81818
    80000204:	181e8e9b          	addiw	x29,x29,385
    80000208:	00c00193          	addi	x3,x0,12
    8000020c:	1bdf1863          	bne	x30,x29,800003bc <fail>

0000000080000210 <test_13>:
    80000210:	818180b7          	lui	x1,0x81818
    80000214:	1810809b          	addiw	x1,x1,385
    80000218:	4010df13          	srai	x30,x1,0x1
    8000021c:	c0c0ceb7          	lui	x29,0xc0c0c
    80000220:	0c0e8e9b          	addiw	x29,x29,192
    80000224:	00d00193          	addi	x3,x0,13
    80000228:	19df1a63          	bne	x30,x29,800003bc <fail>

000000008000022c <test_14>:
    8000022c:	818180b7          	lui	x1,0x81818
    80000230:	1810809b          	addiw	x1,x1,385
    80000234:	4070df13          	srai	x30,x1,0x7
    80000238:	ff030eb7          	lui	x29,0xff030
    8000023c:	303e8e9b          	addiw	x29,x29,771
    80000240:	00e00193          	addi	x3,x0,14
    80000244:	17df1c63          	bne	x30,x29,800003bc <fail>

0000000080000248 <test_15>:
    80000248:	818180b7          	lui	x1,0x81818
    8000024c:	1810809b          	addiw	x1,x1,385
    80000250:	40e0df13          	srai	x30,x1,0xe
    80000254:	fffe0eb7          	lui	x29,0xfffe0
    80000258:	606e8e9b          	addiw	x29,x29,1542
    8000025c:	00f00193          	addi	x3,x0,15
    80000260:	15df1e63          	bne	x30,x29,800003bc <fail>

0000000080000264 <test_16>:
    80000264:	818180b7          	lui	x1,0x81818
    80000268:	1810809b          	addiw	x1,x1,385
    8000026c:	41f0df13          	srai	x30,x1,0x1f
    80000270:	fff00e93          	addi	x29,x0,-1
    80000274:	01000193          	addi	x3,x0,16
    80000278:	15df1263          	bne	x30,x29,800003bc <fail>

000000008000027c <test_17>:
    8000027c:	800000b7          	lui	x1,0x80000
    80000280:	4070d093          	srai	x1,x1,0x7
    80000284:	ff000eb7          	lui	x29,0xff000
    80000288:	01100193          	addi	x3,x0,17
    8000028c:	13d09863          	bne	x1,x29,800003bc <fail>

0000000080000290 <test_18>:
    80000290:	00000213          	addi	x4,x0,0
    80000294:	800000b7          	lui	x1,0x80000
    80000298:	4070df13          	srai	x30,x1,0x7
    8000029c:	000f0313          	addi	x6,x30,0
    800002a0:	00120213          	addi	x4,x4,1 # 1 <_start-0x7fffffff>
    800002a4:	00200293          	addi	x5,x0,2
    800002a8:	fe5216e3          	bne	x4,x5,80000294 <test_18+0x4>
    800002ac:	ff000eb7          	lui	x29,0xff000
    800002b0:	01200193          	addi	x3,x0,18
    800002b4:	11d31463          	bne	x6,x29,800003bc <fail>

00000000800002b8 <test_19>:
    800002b8:	00000213          	addi	x4,x0,0
    800002bc:	800000b7          	lui	x1,0x80000
    800002c0:	40e0df13          	srai	x30,x1,0xe
    800002c4:	00000013          	addi	x0,x0,0
    800002c8:	000f0313          	addi	x6,x30,0
    800002cc:	00120213          	addi	x4,x4,1 # 1 <_start-0x7fffffff>
    800002d0:	00200293          	addi	x5,x0,2
    800002d4:	fe5214e3          	bne	x4,x5,800002bc <test_19+0x4>
    800002d8:	fffe0eb7          	lui	x29,0xfffe0
    800002dc:	01300193          	addi	x3,x0,19
    800002e0:	0dd31e63          	bne	x6,x29,800003bc <fail>

00000000800002e4 <test_20>:
    800002e4:	00000213          	addi	x4,x0,0
    800002e8:	800000b7          	lui	x1,0x80000
    800002ec:	0010809b          	addiw	x1,x1,1
    800002f0:	41f0df13          	srai	x30,x1,0x1f
    800002f4:	00000013          	addi	x0,x0,0
    800002f8:	00000013          	addi	x0,x0,0
    800002fc:	000f0313          	addi	x6,x30,0
    80000300:	00120213          	addi	x4,x4,1 # 1 <_start-0x7fffffff>
    80000304:	00200293          	addi	x5,x0,2
    80000308:	fe5210e3          	bne	x4,x5,800002e8 <test_20+0x4>
    8000030c:	fff00e93          	addi	x29,x0,-1
    80000310:	01400193          	addi	x3,x0,20
    80000314:	0bd31463          	bne	x6,x29,800003bc <fail>

0000000080000318 <test_21>:
    80000318:	00000213          	addi	x4,x0,0
    8000031c:	800000b7          	lui	x1,0x80000
    80000320:	4070df13          	srai	x30,x1,0x7
    80000324:	00120213          	addi	x4,x4,1 # 1 <_start-0x7fffffff>
    80000328:	00200293          	addi	x5,x0,2
    8000032c:	fe5218e3          	bne	x4,x5,8000031c <test_21+0x4>
    80000330:	ff000eb7          	lui	x29,0xff000
    80000334:	01500193          	addi	x3,x0,21
    80000338:	09df1263          	bne	x30,x29,800003bc <fail>

000000008000033c <test_22>:
    8000033c:	00000213          	addi	x4,x0,0
    80000340:	800000b7          	lui	x1,0x80000
    80000344:	00000013          	addi	x0,x0,0
    80000348:	40e0df13          	srai	x30,x1,0xe
    8000034c:	00120213          	addi	x4,x4,1 # 1 <_start-0x7fffffff>
    80000350:	00200293          	addi	x5,x0,2
    80000354:	fe5216e3          	bne	x4,x5,80000340 <test_22+0x4>
    80000358:	fffe0eb7          	lui	x29,0xfffe0
    8000035c:	01600193          	addi	x3,x0,22
    80000360:	05df1e63          	bne	x30,x29,800003bc <fail>

0000000080000364 <test_23>:
    80000364:	00000213          	addi	x4,x0,0
    80000368:	800000b7          	lui	x1,0x80000
    8000036c:	0010809b          	addiw	x1,x1,1
    80000370:	00000013          	addi	x0,x0,0
    80000374:	00000013          	addi	x0,x0,0
    80000378:	41f0df13          	srai	x30,x1,0x1f
    8000037c:	00120213          	addi	x4,x4,1 # 1 <_start-0x7fffffff>
    80000380:	00200293          	addi	x5,x0,2
    80000384:	fe5212e3          	bne	x4,x5,80000368 <test_23+0x4>
    80000388:	fff00e93          	addi	x29,x0,-1
    8000038c:	01700193          	addi	x3,x0,23
    80000390:	03df1663          	bne	x30,x29,800003bc <fail>

0000000080000394 <test_24>:
    80000394:	40405093          	srai	x1,x0,0x4
    80000398:	00000e93          	addi	x29,x0,0
    8000039c:	01800193          	addi	x3,x0,24
    800003a0:	01d09e63          	bne	x1,x29,800003bc <fail>

00000000800003a4 <test_25>:
    800003a4:	02100093          	addi	x1,x0,33
    800003a8:	40a0d013          	srai	x0,x1,0xa
    800003ac:	00000e93          	addi	x29,x0,0
    800003b0:	01900193          	addi	x3,x0,25
    800003b4:	01d01463          	bne	x0,x29,800003bc <fail>
    800003b8:	00301c63          	bne	x0,x3,800003d0 <pass>

00000000800003bc <fail>:
    800003bc:	0ff0000f          	fence	iorw,iorw
    800003c0:	00018063          	beq	x3,x0,800003c0 <fail+0x4>
    800003c4:	00119193          	slli	x3,x3,0x1
    800003c8:	0011e193          	ori	x3,x3,1
    800003cc:	00000073          	ecall

00000000800003d0 <pass>:
    800003d0:	0ff0000f          	fence	iorw,iorw
    800003d4:	00100193          	addi	x3,x0,1
    800003d8:	00000073          	ecall
    800003dc:	c0001073          	unimp
	...
