
rv64ui-v-sltu:     file format elf64-littleriscv


Disassembly of section .text.init:

0000000080000000 <_start>:
    80000000:	00c0006f          	jal	x0,8000000c <handle_reset>

0000000080000004 <nmi_vector>:
    80000004:	2580206f          	jal	x0,8000225c <wtf>

0000000080000008 <trap_vector>:
    80000008:	2540206f          	jal	x0,8000225c <wtf>

000000008000000c <handle_reset>:
    8000000c:	00000297          	auipc	x5,0x0
    80000010:	ffc28293          	addi	x5,x5,-4 # 80000008 <trap_vector>
    80000014:	30529073          	csrrw	x0,mtvec,x5
    80000018:	00009117          	auipc	x2,0x9
    8000001c:	6b810113          	addi	x2,x2,1720 # 800096d0 <_end+0xee0>
    80000020:	f14022f3          	csrrs	x5,mhartid,x0
    80000024:	00c29293          	slli	x5,x5,0xc
    80000028:	00510133          	add	x2,x2,x5
    8000002c:	34011073          	csrrw	x0,mscratch,x2
    80000030:	00003517          	auipc	x10,0x3
    80000034:	a9850513          	addi	x10,x10,-1384 # 80002ac8 <userstart>
    80000038:	09d0206f          	jal	x0,800028d4 <vm_boot>

000000008000003c <pop_tf>:
    8000003c:	10853283          	ld	x5,264(x10)
    80000040:	14129073          	csrrw	x0,sepc,x5
    80000044:	00853083          	ld	x1,8(x10)
    80000048:	01053103          	ld	x2,16(x10)
    8000004c:	01853183          	ld	x3,24(x10)
    80000050:	02053203          	ld	x4,32(x10)
    80000054:	02853283          	ld	x5,40(x10)
    80000058:	03053303          	ld	x6,48(x10)
    8000005c:	03853383          	ld	x7,56(x10)
    80000060:	04053403          	ld	x8,64(x10)
    80000064:	04853483          	ld	x9,72(x10)
    80000068:	05853583          	ld	x11,88(x10)
    8000006c:	06053603          	ld	x12,96(x10)
    80000070:	06853683          	ld	x13,104(x10)
    80000074:	07053703          	ld	x14,112(x10)
    80000078:	07853783          	ld	x15,120(x10)
    8000007c:	08053803          	ld	x16,128(x10)
    80000080:	08853883          	ld	x17,136(x10)
    80000084:	09053903          	ld	x18,144(x10)
    80000088:	09853983          	ld	x19,152(x10)
    8000008c:	0a053a03          	ld	x20,160(x10)
    80000090:	0a853a83          	ld	x21,168(x10)
    80000094:	0b053b03          	ld	x22,176(x10)
    80000098:	0b853b83          	ld	x23,184(x10)
    8000009c:	0c053c03          	ld	x24,192(x10)
    800000a0:	0c853c83          	ld	x25,200(x10)
    800000a4:	0d053d03          	ld	x26,208(x10)
    800000a8:	0d853d83          	ld	x27,216(x10)
    800000ac:	0e053e03          	ld	x28,224(x10)
    800000b0:	0e853e83          	ld	x29,232(x10)
    800000b4:	0f053f03          	ld	x30,240(x10)
    800000b8:	0f853f83          	ld	x31,248(x10)
    800000bc:	05053503          	ld	x10,80(x10)
    800000c0:	10200073          	sret

00000000800000c4 <trap_entry>:
    800000c4:	14011173          	csrrw	x2,sscratch,x2
    800000c8:	00113423          	sd	x1,8(x2)
    800000cc:	00313c23          	sd	x3,24(x2)
    800000d0:	02413023          	sd	x4,32(x2)
    800000d4:	02513423          	sd	x5,40(x2)
    800000d8:	02613823          	sd	x6,48(x2)
    800000dc:	02713c23          	sd	x7,56(x2)
    800000e0:	04813023          	sd	x8,64(x2)
    800000e4:	04913423          	sd	x9,72(x2)
    800000e8:	04a13823          	sd	x10,80(x2)
    800000ec:	04b13c23          	sd	x11,88(x2)
    800000f0:	06c13023          	sd	x12,96(x2)
    800000f4:	06d13423          	sd	x13,104(x2)
    800000f8:	06e13823          	sd	x14,112(x2)
    800000fc:	06f13c23          	sd	x15,120(x2)
    80000100:	09013023          	sd	x16,128(x2)
    80000104:	09113423          	sd	x17,136(x2)
    80000108:	09213823          	sd	x18,144(x2)
    8000010c:	09313c23          	sd	x19,152(x2)
    80000110:	0b413023          	sd	x20,160(x2)
    80000114:	0b513423          	sd	x21,168(x2)
    80000118:	0b613823          	sd	x22,176(x2)
    8000011c:	0b713c23          	sd	x23,184(x2)
    80000120:	0d813023          	sd	x24,192(x2)
    80000124:	0d913423          	sd	x25,200(x2)
    80000128:	0da13823          	sd	x26,208(x2)
    8000012c:	0db13c23          	sd	x27,216(x2)
    80000130:	0fc13023          	sd	x28,224(x2)
    80000134:	0fd13423          	sd	x29,232(x2)
    80000138:	0fe13823          	sd	x30,240(x2)
    8000013c:	0ff13c23          	sd	x31,248(x2)
    80000140:	140112f3          	csrrw	x5,sscratch,x2
    80000144:	00513823          	sd	x5,16(x2)
    80000148:	100022f3          	csrrs	x5,sstatus,x0
    8000014c:	10513023          	sd	x5,256(x2)
    80000150:	141022f3          	csrrs	x5,sepc,x0
    80000154:	10513423          	sd	x5,264(x2)
    80000158:	143022f3          	csrrs	x5,sbadaddr,x0
    8000015c:	10513823          	sd	x5,272(x2)
    80000160:	142022f3          	csrrs	x5,scause,x0
    80000164:	10513c23          	sd	x5,280(x2)
    80000168:	00010513          	addi	x10,x2,0
    8000016c:	4300206f          	jal	x0,8000259c <handle_trap>

Disassembly of section .text:

0000000080002000 <memcpy>:
    80002000:	00c5e7b3          	or	x15,x11,x12
    80002004:	00f567b3          	or	x15,x10,x15
    80002008:	0077f793          	andi	x15,x15,7
    8000200c:	00c506b3          	add	x13,x10,x12
    80002010:	02078463          	beq	x15,x0,80002038 <memcpy+0x38>
    80002014:	00c58633          	add	x12,x11,x12
    80002018:	00050793          	addi	x15,x10,0
    8000201c:	02d57e63          	bgeu	x10,x13,80002058 <memcpy+0x58>
    80002020:	00158593          	addi	x11,x11,1
    80002024:	fff5c703          	lbu	x14,-1(x11)
    80002028:	00178793          	addi	x15,x15,1
    8000202c:	fee78fa3          	sb	x14,-1(x15)
    80002030:	feb618e3          	bne	x12,x11,80002020 <memcpy+0x20>
    80002034:	00008067          	jalr	x0,0(x1)
    80002038:	fed57ee3          	bgeu	x10,x13,80002034 <memcpy+0x34>
    8000203c:	00050793          	addi	x15,x10,0
    80002040:	00858593          	addi	x11,x11,8
    80002044:	ff85b703          	ld	x14,-8(x11)
    80002048:	00878793          	addi	x15,x15,8
    8000204c:	fee7bc23          	sd	x14,-8(x15)
    80002050:	fed7e8e3          	bltu	x15,x13,80002040 <memcpy+0x40>
    80002054:	00008067          	jalr	x0,0(x1)
    80002058:	00008067          	jalr	x0,0(x1)

000000008000205c <memset>:
    8000205c:	00c567b3          	or	x15,x10,x12
    80002060:	0077f793          	andi	x15,x15,7
    80002064:	00c50633          	add	x12,x10,x12
    80002068:	0ff5f593          	andi	x11,x11,255
    8000206c:	00078e63          	beq	x15,x0,80002088 <memset+0x2c>
    80002070:	00050793          	addi	x15,x10,0
    80002074:	04c57263          	bgeu	x10,x12,800020b8 <memset+0x5c>
    80002078:	00178793          	addi	x15,x15,1
    8000207c:	feb78fa3          	sb	x11,-1(x15)
    80002080:	fef61ce3          	bne	x12,x15,80002078 <memset+0x1c>
    80002084:	00008067          	jalr	x0,0(x1)
    80002088:	00859793          	slli	x15,x11,0x8
    8000208c:	00b7e5b3          	or	x11,x15,x11
    80002090:	01059793          	slli	x15,x11,0x10
    80002094:	00b7e7b3          	or	x15,x15,x11
    80002098:	02079593          	slli	x11,x15,0x20
    8000209c:	00f5e5b3          	or	x11,x11,x15
    800020a0:	fec572e3          	bgeu	x10,x12,80002084 <memset+0x28>
    800020a4:	00050793          	addi	x15,x10,0
    800020a8:	00878793          	addi	x15,x15,8
    800020ac:	feb7bc23          	sd	x11,-8(x15)
    800020b0:	fec7ece3          	bltu	x15,x12,800020a8 <memset+0x4c>
    800020b4:	00008067          	jalr	x0,0(x1)
    800020b8:	00008067          	jalr	x0,0(x1)

00000000800020bc <strlen>:
    800020bc:	00054783          	lbu	x15,0(x10)
    800020c0:	00050713          	addi	x14,x10,0
    800020c4:	00078c63          	beq	x15,x0,800020dc <strlen+0x20>
    800020c8:	00150513          	addi	x10,x10,1
    800020cc:	00054783          	lbu	x15,0(x10)
    800020d0:	fe079ce3          	bne	x15,x0,800020c8 <strlen+0xc>
    800020d4:	40e50533          	sub	x10,x10,x14
    800020d8:	00008067          	jalr	x0,0(x1)
    800020dc:	00000513          	addi	x10,x0,0
    800020e0:	00008067          	jalr	x0,0(x1)

00000000800020e4 <strcmp>:
    800020e4:	00150513          	addi	x10,x10,1
    800020e8:	fff54783          	lbu	x15,-1(x10)
    800020ec:	00158593          	addi	x11,x11,1
    800020f0:	fff5c703          	lbu	x14,-1(x11)
    800020f4:	00078a63          	beq	x15,x0,80002108 <strcmp+0x24>
    800020f8:	fee786e3          	beq	x15,x14,800020e4 <strcmp>
    800020fc:	0007851b          	addiw	x10,x15,0
    80002100:	40e5053b          	subw	x10,x10,x14
    80002104:	00008067          	jalr	x0,0(x1)
    80002108:	00000513          	addi	x10,x0,0
    8000210c:	ff5ff06f          	jal	x0,80002100 <strcmp+0x1c>

0000000080002110 <memcmp>:
    80002110:	00b567b3          	or	x15,x10,x11
    80002114:	0077f793          	andi	x15,x15,7
    80002118:	04079263          	bne	x15,x0,8000215c <memcmp+0x4c>
    8000211c:	ff867693          	andi	x13,x12,-8
    80002120:	00d506b3          	add	x13,x10,x13
    80002124:	00050813          	addi	x16,x10,0
    80002128:	02d57a63          	bgeu	x10,x13,8000215c <memcmp+0x4c>
    8000212c:	00053703          	ld	x14,0(x10)
    80002130:	0005b783          	ld	x15,0(x11)
    80002134:	00f70a63          	beq	x14,x15,80002148 <memcmp+0x38>
    80002138:	0240006f          	jal	x0,8000215c <memcmp+0x4c>
    8000213c:	00053703          	ld	x14,0(x10)
    80002140:	0005b783          	ld	x15,0(x11)
    80002144:	00f71863          	bne	x14,x15,80002154 <memcmp+0x44>
    80002148:	00850513          	addi	x10,x10,8
    8000214c:	00858593          	addi	x11,x11,8
    80002150:	fed566e3          	bltu	x10,x13,8000213c <memcmp+0x2c>
    80002154:	41050833          	sub	x16,x10,x16
    80002158:	41060633          	sub	x12,x12,x16
    8000215c:	00c58633          	add	x12,x11,x12
    80002160:	0140006f          	jal	x0,80002174 <memcmp+0x64>
    80002164:	00158593          	addi	x11,x11,1
    80002168:	fff54783          	lbu	x15,-1(x10)
    8000216c:	fff5c703          	lbu	x14,-1(x11)
    80002170:	00e79a63          	bne	x15,x14,80002184 <memcmp+0x74>
    80002174:	00150513          	addi	x10,x10,1
    80002178:	fec596e3          	bne	x11,x12,80002164 <memcmp+0x54>
    8000217c:	00000513          	addi	x10,x0,0
    80002180:	00008067          	jalr	x0,0(x1)
    80002184:	40e7853b          	subw	x10,x15,x14
    80002188:	00008067          	jalr	x0,0(x1)

000000008000218c <strcpy>:
    8000218c:	00050793          	addi	x15,x10,0
    80002190:	00158593          	addi	x11,x11,1
    80002194:	fff5c703          	lbu	x14,-1(x11)
    80002198:	00178793          	addi	x15,x15,1
    8000219c:	fee78fa3          	sb	x14,-1(x15)
    800021a0:	fe0718e3          	bne	x14,x0,80002190 <strcpy+0x4>
    800021a4:	00008067          	jalr	x0,0(x1)

00000000800021a8 <atol>:
    800021a8:	00054783          	lbu	x15,0(x10)
    800021ac:	02000713          	addi	x14,x0,32
    800021b0:	00e79863          	bne	x15,x14,800021c0 <atol+0x18>
    800021b4:	00150513          	addi	x10,x10,1
    800021b8:	00054783          	lbu	x15,0(x10)
    800021bc:	fee78ce3          	beq	x15,x14,800021b4 <atol+0xc>
    800021c0:	fd57871b          	addiw	x14,x15,-43
    800021c4:	0fd77713          	andi	x14,x14,253
    800021c8:	04070263          	beq	x14,x0,8000220c <atol+0x64>
    800021cc:	00054683          	lbu	x13,0(x10)
    800021d0:	00050793          	addi	x15,x10,0
    800021d4:	00000613          	addi	x12,x0,0
    800021d8:	04068863          	beq	x13,x0,80002228 <atol+0x80>
    800021dc:	00000513          	addi	x10,x0,0
    800021e0:	00178793          	addi	x15,x15,1
    800021e4:	fd06859b          	addiw	x11,x13,-48
    800021e8:	00251713          	slli	x14,x10,0x2
    800021ec:	0007c683          	lbu	x13,0(x15)
    800021f0:	00a70533          	add	x10,x14,x10
    800021f4:	00151513          	slli	x10,x10,0x1
    800021f8:	00a58533          	add	x10,x11,x10
    800021fc:	fe0692e3          	bne	x13,x0,800021e0 <atol+0x38>
    80002200:	00060463          	beq	x12,x0,80002208 <atol+0x60>
    80002204:	40a00533          	sub	x10,x0,x10
    80002208:	00008067          	jalr	x0,0(x1)
    8000220c:	00154683          	lbu	x13,1(x10)
    80002210:	fd378793          	addi	x15,x15,-45
    80002214:	0017b613          	sltiu	x12,x15,1
    80002218:	00150793          	addi	x15,x10,1
    8000221c:	fc0690e3          	bne	x13,x0,800021dc <atol+0x34>
    80002220:	00000513          	addi	x10,x0,0
    80002224:	fddff06f          	jal	x0,80002200 <atol+0x58>
    80002228:	00000513          	addi	x10,x0,0
    8000222c:	00008067          	jalr	x0,0(x1)

0000000080002230 <terminate>:
    80002230:	fffff797          	auipc	x15,0xfffff
    80002234:	dd078793          	addi	x15,x15,-560 # 80001000 <tohost>
    80002238:	0007b703          	ld	x14,0(x15)
    8000223c:	00070a63          	beq	x14,x0,80002250 <terminate+0x20>
    80002240:	fffff717          	auipc	x14,0xfffff
    80002244:	e0073023          	sd	x0,-512(x14) # 80001040 <fromhost>
    80002248:	0007b703          	ld	x14,0(x15)
    8000224c:	fe071ae3          	bne	x14,x0,80002240 <terminate+0x10>
    80002250:	fffff797          	auipc	x15,0xfffff
    80002254:	daa7b823          	sd	x10,-592(x15) # 80001000 <tohost>
    80002258:	0000006f          	jal	x0,80002258 <terminate+0x28>

000000008000225c <wtf>:
    8000225c:	ff010113          	addi	x2,x2,-16
    80002260:	34900513          	addi	x10,x0,841
    80002264:	00113423          	sd	x1,8(x2)
    80002268:	fc9ff0ef          	jal	x1,80002230 <terminate>

000000008000226c <printhex>:
    8000226c:	fe010113          	addi	x2,x2,-32
    80002270:	01710713          	addi	x14,x2,23
    80002274:	00710813          	addi	x16,x2,7
    80002278:	00900593          	addi	x11,x0,9
    8000227c:	00f57793          	andi	x15,x10,15
    80002280:	03000613          	addi	x12,x0,48
    80002284:	0ff7f693          	andi	x13,x15,255
    80002288:	00f5f463          	bgeu	x11,x15,80002290 <printhex+0x24>
    8000228c:	05700613          	addi	x12,x0,87
    80002290:	00c687bb          	addw	x15,x13,x12
    80002294:	00f70023          	sb	x15,0(x14)
    80002298:	fff70713          	addi	x14,x14,-1
    8000229c:	00455513          	srli	x10,x10,0x4
    800022a0:	fd071ee3          	bne	x14,x16,8000227c <printhex+0x10>
    800022a4:	00814783          	lbu	x15,8(x2)
    800022a8:	00010c23          	sb	x0,24(x2)
    800022ac:	04078463          	beq	x15,x0,800022f4 <printhex+0x88>
    800022b0:	10100513          	addi	x10,x0,257
    800022b4:	00810693          	addi	x13,x2,8
    800022b8:	fffff717          	auipc	x14,0xfffff
    800022bc:	d4870713          	addi	x14,x14,-696 # 80001000 <tohost>
    800022c0:	03051513          	slli	x10,x10,0x30
    800022c4:	00073583          	ld	x11,0(x14)
    800022c8:	00168693          	addi	x13,x13,1
    800022cc:	00a7e633          	or	x12,x15,x10
    800022d0:	00058a63          	beq	x11,x0,800022e4 <printhex+0x78>
    800022d4:	fffff797          	auipc	x15,0xfffff
    800022d8:	d607b623          	sd	x0,-660(x15) # 80001040 <fromhost>
    800022dc:	00073783          	ld	x15,0(x14)
    800022e0:	fe079ae3          	bne	x15,x0,800022d4 <printhex+0x68>
    800022e4:	0006c783          	lbu	x15,0(x13)
    800022e8:	fffff597          	auipc	x11,0xfffff
    800022ec:	d0c5bc23          	sd	x12,-744(x11) # 80001000 <tohost>
    800022f0:	fc079ae3          	bne	x15,x0,800022c4 <printhex+0x58>
    800022f4:	02010113          	addi	x2,x2,32
    800022f8:	00008067          	jalr	x0,0(x1)

00000000800022fc <handle_fault>:
    800022fc:	fffff8b7          	lui	x17,0xfffff
    80002300:	01150733          	add	x14,x10,x17
    80002304:	0003e7b7          	lui	x15,0x3e
    80002308:	14f77463          	bgeu	x14,x15,80002450 <handle_fault+0x154>
    8000230c:	00c55693          	srli	x13,x10,0xc
    80002310:	60068813          	addi	x16,x13,1536
    80002314:	00002617          	auipc	x12,0x2
    80002318:	cec60613          	addi	x12,x12,-788 # 80004000 <begin_signature>
    8000231c:	00381793          	slli	x15,x16,0x3
    80002320:	00f607b3          	add	x15,x12,x15
    80002324:	0007b703          	ld	x14,0(x15) # 3e000 <_start-0x7ffc2000>
    80002328:	01157533          	and	x10,x10,x17
    8000232c:	0e071063          	bne	x14,x0,8000240c <handle_fault+0x110>
    80002330:	00006797          	auipc	x15,0x6
    80002334:	4b878793          	addi	x15,x15,1208 # 800087e8 <freelist_head>
    80002338:	0007b583          	ld	x11,0(x15)
    8000233c:	16058863          	beq	x11,x0,800024ac <handle_fault+0x1b0>
    80002340:	0085b783          	ld	x15,8(x11)
    80002344:	00006717          	auipc	x14,0x6
    80002348:	49c70713          	addi	x14,x14,1180 # 800087e0 <freelist_tail>
    8000234c:	00073703          	ld	x14,0(x14)
    80002350:	00006897          	auipc	x17,0x6
    80002354:	48f8bc23          	sd	x15,1176(x17) # 800087e8 <freelist_head>
    80002358:	0ee78663          	beq	x15,x14,80002444 <handle_fault+0x148>
    8000235c:	0005b783          	ld	x15,0(x11)
    80002360:	00381893          	slli	x17,x16,0x3
    80002364:	011608b3          	add	x17,x12,x17
    80002368:	00c7d793          	srli	x15,x15,0xc
    8000236c:	00a79793          	slli	x15,x15,0xa
    80002370:	0df7e313          	ori	x6,x15,223
    80002374:	01f7e713          	ori	x14,x15,31
    80002378:	0068b023          	sd	x6,0(x17)
    8000237c:	12050073          	sfence.vma	x10,x0
    80002380:	00006797          	auipc	x15,0x6
    80002384:	07078793          	addi	x15,x15,112 # 800083f0 <user_mapping>
    80002388:	00469693          	slli	x13,x13,0x4
    8000238c:	00d786b3          	add	x13,x15,x13
    80002390:	0006b783          	ld	x15,0(x13)
    80002394:	16079463          	bne	x15,x0,800024fc <handle_fault+0x200>
    80002398:	0005b783          	ld	x15,0(x11)
    8000239c:	00f6b023          	sd	x15,0(x13)
    800023a0:	0085b783          	ld	x15,8(x11)
    800023a4:	00f6b423          	sd	x15,8(x13)
    800023a8:	000407b7          	lui	x15,0x40
    800023ac:	1007a8f3          	csrrs	x17,sstatus,x15
    800023b0:	ffe007b7          	lui	x15,0xffe00
    800023b4:	00f507b3          	add	x15,x10,x15
    800023b8:	000015b7          	lui	x11,0x1
    800023bc:	00050693          	addi	x13,x10,0
    800023c0:	00b785b3          	add	x11,x15,x11
    800023c4:	0007bf03          	ld	x30,0(x15) # ffffffffffe00000 <_end+0xffffffff7fdf7810>
    800023c8:	0087be83          	ld	x29,8(x15)
    800023cc:	0107be03          	ld	x28,16(x15)
    800023d0:	0187b303          	ld	x6,24(x15)
    800023d4:	01e6b023          	sd	x30,0(x13)
    800023d8:	01d6b423          	sd	x29,8(x13)
    800023dc:	01c6b823          	sd	x28,16(x13)
    800023e0:	0066bc23          	sd	x6,24(x13)
    800023e4:	02078793          	addi	x15,x15,32
    800023e8:	02068693          	addi	x13,x13,32
    800023ec:	fcb79ce3          	bne	x15,x11,800023c4 <handle_fault+0xc8>
    800023f0:	10089073          	csrrw	x0,sstatus,x17
    800023f4:	00381813          	slli	x16,x16,0x3
    800023f8:	01060633          	add	x12,x12,x16
    800023fc:	00e63023          	sd	x14,0(x12)
    80002400:	12050073          	sfence.vma	x10,x0
    80002404:	0000100f          	fence.i
    80002408:	00008067          	jalr	x0,0(x1)
    8000240c:	04077693          	andi	x13,x14,64
    80002410:	00069a63          	bne	x13,x0,80002424 <handle_fault+0x128>
    80002414:	04076713          	ori	x14,x14,64
    80002418:	00e7b023          	sd	x14,0(x15)
    8000241c:	12050073          	sfence.vma	x10,x0
    80002420:	00008067          	jalr	x0,0(x1)
    80002424:	08077693          	andi	x13,x14,128
    80002428:	12069263          	bne	x13,x0,8000254c <handle_fault+0x250>
    8000242c:	00f00693          	addi	x13,x0,15
    80002430:	10d59e63          	bne	x11,x13,8000254c <handle_fault+0x250>
    80002434:	08076713          	ori	x14,x14,128
    80002438:	00e7b023          	sd	x14,0(x15)
    8000243c:	12050073          	sfence.vma	x10,x0
    80002440:	00008067          	jalr	x0,0(x1)
    80002444:	00006797          	auipc	x15,0x6
    80002448:	3807be23          	sd	x0,924(x15) # 800087e0 <freelist_tail>
    8000244c:	f11ff06f          	jal	x0,8000235c <handle_fault+0x60>
    80002450:	10100613          	addi	x12,x0,257
    80002454:	04100713          	addi	x14,x0,65
    80002458:	00001697          	auipc	x13,0x1
    8000245c:	b9868693          	addi	x13,x13,-1128 # 80002ff0 <pass+0xc>
    80002460:	fffff797          	auipc	x15,0xfffff
    80002464:	ba078793          	addi	x15,x15,-1120 # 80001000 <tohost>
    80002468:	03061613          	slli	x12,x12,0x30
    8000246c:	0007b503          	ld	x10,0(x15)
    80002470:	00168693          	addi	x13,x13,1
    80002474:	00c765b3          	or	x11,x14,x12
    80002478:	00050a63          	beq	x10,x0,8000248c <handle_fault+0x190>
    8000247c:	fffff717          	auipc	x14,0xfffff
    80002480:	bc073223          	sd	x0,-1084(x14) # 80001040 <fromhost>
    80002484:	0007b703          	ld	x14,0(x15)
    80002488:	fe071ae3          	bne	x14,x0,8000247c <handle_fault+0x180>
    8000248c:	0006c703          	lbu	x14,0(x13)
    80002490:	fffff517          	auipc	x10,0xfffff
    80002494:	b6b53823          	sd	x11,-1168(x10) # 80001000 <tohost>
    80002498:	fc071ae3          	bne	x14,x0,8000246c <handle_fault+0x170>
    8000249c:	ff010113          	addi	x2,x2,-16
    800024a0:	00300513          	addi	x10,x0,3
    800024a4:	00113423          	sd	x1,8(x2)
    800024a8:	d89ff0ef          	jal	x1,80002230 <terminate>
    800024ac:	10100693          	addi	x13,x0,257
    800024b0:	04100713          	addi	x14,x0,65
    800024b4:	00001617          	auipc	x12,0x1
    800024b8:	bcc60613          	addi	x12,x12,-1076 # 80003080 <pass+0x9c>
    800024bc:	fffff797          	auipc	x15,0xfffff
    800024c0:	b4478793          	addi	x15,x15,-1212 # 80001000 <tohost>
    800024c4:	03069693          	slli	x13,x13,0x30
    800024c8:	0007b503          	ld	x10,0(x15)
    800024cc:	00160613          	addi	x12,x12,1
    800024d0:	00d765b3          	or	x11,x14,x13
    800024d4:	00050a63          	beq	x10,x0,800024e8 <handle_fault+0x1ec>
    800024d8:	fffff717          	auipc	x14,0xfffff
    800024dc:	b6073423          	sd	x0,-1176(x14) # 80001040 <fromhost>
    800024e0:	0007b703          	ld	x14,0(x15)
    800024e4:	fe071ae3          	bne	x14,x0,800024d8 <handle_fault+0x1dc>
    800024e8:	00064703          	lbu	x14,0(x12)
    800024ec:	fffff517          	auipc	x10,0xfffff
    800024f0:	b0b53a23          	sd	x11,-1260(x10) # 80001000 <tohost>
    800024f4:	fc071ae3          	bne	x14,x0,800024c8 <handle_fault+0x1cc>
    800024f8:	fa5ff06f          	jal	x0,8000249c <handle_fault+0x1a0>
    800024fc:	10100693          	addi	x13,x0,257
    80002500:	04100713          	addi	x14,x0,65
    80002504:	00001617          	auipc	x12,0x1
    80002508:	b9460613          	addi	x12,x12,-1132 # 80003098 <pass+0xb4>
    8000250c:	fffff797          	auipc	x15,0xfffff
    80002510:	af478793          	addi	x15,x15,-1292 # 80001000 <tohost>
    80002514:	03069693          	slli	x13,x13,0x30
    80002518:	0007b503          	ld	x10,0(x15)
    8000251c:	00160613          	addi	x12,x12,1
    80002520:	00d765b3          	or	x11,x14,x13
    80002524:	00050a63          	beq	x10,x0,80002538 <handle_fault+0x23c>
    80002528:	fffff717          	auipc	x14,0xfffff
    8000252c:	b0073c23          	sd	x0,-1256(x14) # 80001040 <fromhost>
    80002530:	0007b703          	ld	x14,0(x15)
    80002534:	fe071ae3          	bne	x14,x0,80002528 <handle_fault+0x22c>
    80002538:	00064703          	lbu	x14,0(x12)
    8000253c:	fffff517          	auipc	x10,0xfffff
    80002540:	acb53223          	sd	x11,-1340(x10) # 80001000 <tohost>
    80002544:	fc071ae3          	bne	x14,x0,80002518 <handle_fault+0x21c>
    80002548:	f55ff06f          	jal	x0,8000249c <handle_fault+0x1a0>
    8000254c:	10100613          	addi	x12,x0,257
    80002550:	04100713          	addi	x14,x0,65
    80002554:	00001697          	auipc	x13,0x1
    80002558:	ae468693          	addi	x13,x13,-1308 # 80003038 <pass+0x54>
    8000255c:	fffff797          	auipc	x15,0xfffff
    80002560:	aa478793          	addi	x15,x15,-1372 # 80001000 <tohost>
    80002564:	03061613          	slli	x12,x12,0x30
    80002568:	0007b503          	ld	x10,0(x15)
    8000256c:	00168693          	addi	x13,x13,1
    80002570:	00c765b3          	or	x11,x14,x12
    80002574:	00050a63          	beq	x10,x0,80002588 <handle_fault+0x28c>
    80002578:	fffff717          	auipc	x14,0xfffff
    8000257c:	ac073423          	sd	x0,-1336(x14) # 80001040 <fromhost>
    80002580:	0007b703          	ld	x14,0(x15)
    80002584:	fe071ae3          	bne	x14,x0,80002578 <handle_fault+0x27c>
    80002588:	0006c703          	lbu	x14,0(x13)
    8000258c:	fffff517          	auipc	x10,0xfffff
    80002590:	a6b53a23          	sd	x11,-1420(x10) # 80001000 <tohost>
    80002594:	fc071ae3          	bne	x14,x0,80002568 <handle_fault+0x26c>
    80002598:	f05ff06f          	jal	x0,8000249c <handle_fault+0x1a0>

000000008000259c <handle_trap>:
    8000259c:	11853583          	ld	x11,280(x10)
    800025a0:	f9010113          	addi	x2,x2,-112
    800025a4:	06813023          	sd	x8,96(x2)
    800025a8:	06113423          	sd	x1,104(x2)
    800025ac:	04913c23          	sd	x9,88(x2)
    800025b0:	05213823          	sd	x18,80(x2)
    800025b4:	05313423          	sd	x19,72(x2)
    800025b8:	05413023          	sd	x20,64(x2)
    800025bc:	03513c23          	sd	x21,56(x2)
    800025c0:	03613823          	sd	x22,48(x2)
    800025c4:	03713423          	sd	x23,40(x2)
    800025c8:	03813023          	sd	x24,32(x2)
    800025cc:	01913c23          	sd	x25,24(x2)
    800025d0:	01a13823          	sd	x26,16(x2)
    800025d4:	01b13423          	sd	x27,8(x2)
    800025d8:	00800793          	addi	x15,x0,8
    800025dc:	00050413          	addi	x8,x10,0
    800025e0:	12f58a63          	beq	x11,x15,80002714 <handle_trap+0x178>
    800025e4:	00200793          	addi	x15,x0,2
    800025e8:	06f58063          	beq	x11,x15,80002648 <handle_trap+0xac>
    800025ec:	ff458793          	addi	x15,x11,-12 # ff4 <_start-0x7ffff00c>
    800025f0:	00100713          	addi	x14,x0,1
    800025f4:	00f77663          	bgeu	x14,x15,80002600 <handle_trap+0x64>
    800025f8:	00f00793          	addi	x15,x0,15
    800025fc:	1ef59463          	bne	x11,x15,800027e4 <handle_trap+0x248>
    80002600:	11043503          	ld	x10,272(x8)
    80002604:	cf9ff0ef          	jal	x1,800022fc <handle_fault>
    80002608:	00040513          	addi	x10,x8,0
    8000260c:	06013403          	ld	x8,96(x2)
    80002610:	06813083          	ld	x1,104(x2)
    80002614:	05813483          	ld	x9,88(x2)
    80002618:	05013903          	ld	x18,80(x2)
    8000261c:	04813983          	ld	x19,72(x2)
    80002620:	04013a03          	ld	x20,64(x2)
    80002624:	03813a83          	ld	x21,56(x2)
    80002628:	03013b03          	ld	x22,48(x2)
    8000262c:	02813b83          	ld	x23,40(x2)
    80002630:	02013c03          	ld	x24,32(x2)
    80002634:	01813c83          	ld	x25,24(x2)
    80002638:	01013d03          	ld	x26,16(x2)
    8000263c:	00813d83          	ld	x27,8(x2)
    80002640:	07010113          	addi	x2,x2,112
    80002644:	9f9fd06f          	jal	x0,8000003c <pop_tf>
    80002648:	10853703          	ld	x14,264(x10)
    8000264c:	00377793          	andi	x15,x14,3
    80002650:	06079a63          	bne	x15,x0,800026c4 <handle_trap+0x128>
    80002654:	008007ef          	jal	x15,8000265c <handle_trap+0xc0>
    80002658:	00301073          	fssr	x0
    8000265c:	00072703          	lw	x14,0(x14)
    80002660:	0007a783          	lw	x15,0(x15)
    80002664:	04f70c63          	beq	x14,x15,800026bc <handle_trap+0x120>
    80002668:	10100513          	addi	x10,x0,257
    8000266c:	04100793          	addi	x15,x0,65
    80002670:	00001697          	auipc	x13,0x1
    80002674:	b0068693          	addi	x13,x13,-1280 # 80003170 <pass+0x18c>
    80002678:	fffff717          	auipc	x14,0xfffff
    8000267c:	98870713          	addi	x14,x14,-1656 # 80001000 <tohost>
    80002680:	03051513          	slli	x10,x10,0x30
    80002684:	00073583          	ld	x11,0(x14)
    80002688:	00168693          	addi	x13,x13,1
    8000268c:	00a7e633          	or	x12,x15,x10
    80002690:	00058a63          	beq	x11,x0,800026a4 <handle_trap+0x108>
    80002694:	fffff797          	auipc	x15,0xfffff
    80002698:	9a07b623          	sd	x0,-1620(x15) # 80001040 <fromhost>
    8000269c:	00073783          	ld	x15,0(x14)
    800026a0:	fe079ae3          	bne	x15,x0,80002694 <handle_trap+0xf8>
    800026a4:	0006c783          	lbu	x15,0(x13)
    800026a8:	fffff597          	auipc	x11,0xfffff
    800026ac:	94c5bc23          	sd	x12,-1704(x11) # 80001000 <tohost>
    800026b0:	fc079ae3          	bne	x15,x0,80002684 <handle_trap+0xe8>
    800026b4:	00300513          	addi	x10,x0,3
    800026b8:	b79ff0ef          	jal	x1,80002230 <terminate>
    800026bc:	00100513          	addi	x10,x0,1
    800026c0:	b71ff0ef          	jal	x1,80002230 <terminate>
    800026c4:	10100793          	addi	x15,x0,257
    800026c8:	00001617          	auipc	x12,0x1
    800026cc:	a8060613          	addi	x12,x12,-1408 # 80003148 <pass+0x164>
    800026d0:	04100693          	addi	x13,x0,65
    800026d4:	fffff717          	auipc	x14,0xfffff
    800026d8:	92c70713          	addi	x14,x14,-1748 # 80001000 <tohost>
    800026dc:	03079793          	slli	x15,x15,0x30
    800026e0:	00073503          	ld	x10,0(x14)
    800026e4:	00160613          	addi	x12,x12,1
    800026e8:	00f6e5b3          	or	x11,x13,x15
    800026ec:	00050a63          	beq	x10,x0,80002700 <handle_trap+0x164>
    800026f0:	fffff697          	auipc	x13,0xfffff
    800026f4:	9406b823          	sd	x0,-1712(x13) # 80001040 <fromhost>
    800026f8:	00073683          	ld	x13,0(x14)
    800026fc:	fe069ae3          	bne	x13,x0,800026f0 <handle_trap+0x154>
    80002700:	00064683          	lbu	x13,0(x12)
    80002704:	fffff517          	auipc	x10,0xfffff
    80002708:	8eb53e23          	sd	x11,-1796(x10) # 80001000 <tohost>
    8000270c:	fc069ae3          	bne	x13,x0,800026e0 <handle_trap+0x144>
    80002710:	fa5ff06f          	jal	x0,800026b4 <handle_trap+0x118>
    80002714:	05052983          	lw	x19,80(x10)
    80002718:	00001437          	lui	x8,0x1
    8000271c:	00006d17          	auipc	x26,0x6
    80002720:	cd4d0d13          	addi	x26,x26,-812 # 800083f0 <user_mapping>
    80002724:	00002b97          	auipc	x23,0x2
    80002728:	8dcb8b93          	addi	x23,x23,-1828 # 80004000 <begin_signature>
    8000272c:	00040b37          	lui	x22,0x40
    80002730:	ffe00ab7          	lui	x21,0xffe00
    80002734:	00006a17          	auipc	x20,0x6
    80002738:	0aca0a13          	addi	x20,x20,172 # 800087e0 <freelist_tail>
    8000273c:	0003f937          	lui	x18,0x3f
    80002740:	01c0006f          	jal	x0,8000275c <handle_trap+0x1c0>
    80002744:	00f73423          	sd	x15,8(x14)
    80002748:	00006717          	auipc	x14,0x6
    8000274c:	08f73c23          	sd	x15,152(x14) # 800087e0 <freelist_tail>
    80002750:	000017b7          	lui	x15,0x1
    80002754:	00f40433          	add	x8,x8,x15
    80002758:	15240663          	beq	x8,x18,800028a4 <handle_trap+0x308>
    8000275c:	00c45793          	srli	x15,x8,0xc
    80002760:	00479493          	slli	x9,x15,0x4
    80002764:	009d0733          	add	x14,x26,x9
    80002768:	00073703          	ld	x14,0(x14)
    8000276c:	fe0702e3          	beq	x14,x0,80002750 <handle_trap+0x1b4>
    80002770:	60078793          	addi	x15,x15,1536 # 1600 <_start-0x7fffea00>
    80002774:	00379793          	slli	x15,x15,0x3
    80002778:	00fb87b3          	add	x15,x23,x15
    8000277c:	0007bc03          	ld	x24,0(x15)
    80002780:	040c7793          	andi	x15,x24,64
    80002784:	0e078463          	beq	x15,x0,8000286c <handle_trap+0x2d0>
    80002788:	100b2cf3          	csrrs	x25,sstatus,x22
    8000278c:	01540db3          	add	x27,x8,x21
    80002790:	00001637          	lui	x12,0x1
    80002794:	000d8593          	addi	x11,x27,0
    80002798:	00040513          	addi	x10,x8,0 # 1000 <_start-0x7ffff000>
    8000279c:	975ff0ef          	jal	x1,80002110 <memcmp>
    800027a0:	00050e63          	beq	x10,x0,800027bc <handle_trap+0x220>
    800027a4:	080c7c13          	andi	x24,x24,128
    800027a8:	080c0663          	beq	x24,x0,80002834 <handle_trap+0x298>
    800027ac:	00001637          	lui	x12,0x1
    800027b0:	000d8593          	addi	x11,x27,0
    800027b4:	00040513          	addi	x10,x8,0
    800027b8:	849ff0ef          	jal	x1,80002000 <memcpy>
    800027bc:	009d07b3          	add	x15,x26,x9
    800027c0:	100c9073          	csrrw	x0,sstatus,x25
    800027c4:	000a3703          	ld	x14,0(x20)
    800027c8:	0007b023          	sd	x0,0(x15)
    800027cc:	f6071ce3          	bne	x14,x0,80002744 <handle_trap+0x1a8>
    800027d0:	00006717          	auipc	x14,0x6
    800027d4:	00f73823          	sd	x15,16(x14) # 800087e0 <freelist_tail>
    800027d8:	00006717          	auipc	x14,0x6
    800027dc:	00f73823          	sd	x15,16(x14) # 800087e8 <freelist_head>
    800027e0:	f71ff06f          	jal	x0,80002750 <handle_trap+0x1b4>
    800027e4:	10100793          	addi	x15,x0,257
    800027e8:	04100613          	addi	x12,x0,65
    800027ec:	00001697          	auipc	x13,0x1
    800027f0:	9b468693          	addi	x13,x13,-1612 # 800031a0 <pass+0x1bc>
    800027f4:	fffff717          	auipc	x14,0xfffff
    800027f8:	80c70713          	addi	x14,x14,-2036 # 80001000 <tohost>
    800027fc:	03079793          	slli	x15,x15,0x30
    80002800:	00073503          	ld	x10,0(x14)
    80002804:	00168693          	addi	x13,x13,1
    80002808:	00f665b3          	or	x11,x12,x15
    8000280c:	00050a63          	beq	x10,x0,80002820 <handle_trap+0x284>
    80002810:	fffff617          	auipc	x12,0xfffff
    80002814:	82063823          	sd	x0,-2000(x12) # 80001040 <fromhost>
    80002818:	00073603          	ld	x12,0(x14)
    8000281c:	fe061ae3          	bne	x12,x0,80002810 <handle_trap+0x274>
    80002820:	0006c603          	lbu	x12,0(x13)
    80002824:	ffffe517          	auipc	x10,0xffffe
    80002828:	7cb53e23          	sd	x11,2012(x10) # 80001000 <tohost>
    8000282c:	fc061ae3          	bne	x12,x0,80002800 <handle_trap+0x264>
    80002830:	e85ff06f          	jal	x0,800026b4 <handle_trap+0x118>
    80002834:	10100793          	addi	x15,x0,257
    80002838:	04100613          	addi	x12,x0,65
    8000283c:	00001697          	auipc	x13,0x1
    80002840:	8d468693          	addi	x13,x13,-1836 # 80003110 <pass+0x12c>
    80002844:	ffffe717          	auipc	x14,0xffffe
    80002848:	7bc70713          	addi	x14,x14,1980 # 80001000 <tohost>
    8000284c:	03079793          	slli	x15,x15,0x30
    80002850:	00168693          	addi	x13,x13,1
    80002854:	00f665b3          	or	x11,x12,x15
    80002858:	00073603          	ld	x12,0(x14)
    8000285c:	04060863          	beq	x12,x0,800028ac <handle_trap+0x310>
    80002860:	ffffe617          	auipc	x12,0xffffe
    80002864:	7e063023          	sd	x0,2016(x12) # 80001040 <fromhost>
    80002868:	ff1ff06f          	jal	x0,80002858 <handle_trap+0x2bc>
    8000286c:	10100793          	addi	x15,x0,257
    80002870:	04100613          	addi	x12,x0,65
    80002874:	00001697          	auipc	x13,0x1
    80002878:	86468693          	addi	x13,x13,-1948 # 800030d8 <pass+0xf4>
    8000287c:	ffffe717          	auipc	x14,0xffffe
    80002880:	78470713          	addi	x14,x14,1924 # 80001000 <tohost>
    80002884:	03079793          	slli	x15,x15,0x30
    80002888:	00168693          	addi	x13,x13,1
    8000288c:	00f665b3          	or	x11,x12,x15
    80002890:	00073603          	ld	x12,0(x14)
    80002894:	02060663          	beq	x12,x0,800028c0 <handle_trap+0x324>
    80002898:	ffffe617          	auipc	x12,0xffffe
    8000289c:	7a063423          	sd	x0,1960(x12) # 80001040 <fromhost>
    800028a0:	ff1ff06f          	jal	x0,80002890 <handle_trap+0x2f4>
    800028a4:	00098513          	addi	x10,x19,0
    800028a8:	989ff0ef          	jal	x1,80002230 <terminate>
    800028ac:	0006c603          	lbu	x12,0(x13)
    800028b0:	ffffe517          	auipc	x10,0xffffe
    800028b4:	74b53823          	sd	x11,1872(x10) # 80001000 <tohost>
    800028b8:	f8061ce3          	bne	x12,x0,80002850 <handle_trap+0x2b4>
    800028bc:	df9ff06f          	jal	x0,800026b4 <handle_trap+0x118>
    800028c0:	0006c603          	lbu	x12,0(x13)
    800028c4:	ffffe517          	auipc	x10,0xffffe
    800028c8:	72b53e23          	sd	x11,1852(x10) # 80001000 <tohost>
    800028cc:	fa061ee3          	bne	x12,x0,80002888 <handle_trap+0x2ec>
    800028d0:	de5ff06f          	jal	x0,800026b4 <handle_trap+0x118>

00000000800028d4 <vm_boot>:
    800028d4:	f14027f3          	csrrs	x15,mhartid,x0
    800028d8:	18079a63          	bne	x15,x0,80002a6c <vm_boot+0x198>
    800028dc:	00002697          	auipc	x13,0x2
    800028e0:	72468693          	addi	x13,x13,1828 # 80005000 <begin_signature+0x1000>
    800028e4:	00003717          	auipc	x14,0x3
    800028e8:	71c70713          	addi	x14,x14,1820 # 80006000 <begin_signature+0x2000>
    800028ec:	00c6d693          	srli	x13,x13,0xc
    800028f0:	00c75713          	srli	x14,x14,0xc
    800028f4:	00004797          	auipc	x15,0x4
    800028f8:	70c78793          	addi	x15,x15,1804 # 80007000 <begin_signature+0x3000>
    800028fc:	00a69693          	slli	x13,x13,0xa
    80002900:	00a71713          	slli	x14,x14,0xa
    80002904:	0016e693          	ori	x13,x13,1
    80002908:	00176713          	ori	x14,x14,1
    8000290c:	00c7d793          	srli	x15,x15,0xc
    80002910:	00001897          	auipc	x17,0x1
    80002914:	6ed8b823          	sd	x13,1776(x17) # 80004000 <begin_signature>
    80002918:	00a79793          	slli	x15,x15,0xa
    8000291c:	00002697          	auipc	x13,0x2
    80002920:	6ce6be23          	sd	x14,1756(x13) # 80004ff8 <begin_signature+0xff8>
    80002924:	20000737          	lui	x14,0x20000
    80002928:	0cf70713          	addi	x14,x14,207 # 200000cf <_start-0x5fffff31>
    8000292c:	fff00593          	addi	x11,x0,-1
    80002930:	0017e793          	ori	x15,x15,1
    80002934:	00001617          	auipc	x12,0x1
    80002938:	6cc60613          	addi	x12,x12,1740 # 80004000 <begin_signature>
    8000293c:	ed010113          	addi	x2,x2,-304
    80002940:	03f59813          	slli	x16,x11,0x3f
    80002944:	00004697          	auipc	x13,0x4
    80002948:	6ae6ba23          	sd	x14,1716(x13) # 80006ff8 <begin_signature+0x2ff8>
    8000294c:	00002717          	auipc	x14,0x2
    80002950:	6af73a23          	sd	x15,1716(x14) # 80005000 <begin_signature+0x1000>
    80002954:	00c65793          	srli	x15,x12,0xc
    80002958:	12113423          	sd	x1,296(x2)
    8000295c:	12813023          	sd	x8,288(x2)
    80002960:	0107e7b3          	or	x15,x15,x16
    80002964:	18079073          	csrrw	x0,satp,x15
    80002968:	01f00793          	addi	x15,x0,31
    8000296c:	00000297          	auipc	x5,0x0
    80002970:	01428293          	addi	x5,x5,20 # 80002980 <vm_boot+0xac>
    80002974:	305292f3          	csrrw	x5,mtvec,x5
    80002978:	3b059073          	csrrw	x0,pmpaddr0,x11
    8000297c:	3a079073          	csrrw	x0,pmpcfg0,x15
    80002980:	bff00813          	addi	x16,x0,-1025
    80002984:	01581813          	slli	x16,x16,0x15
    80002988:	ffffd797          	auipc	x15,0xffffd
    8000298c:	73c78793          	addi	x15,x15,1852 # 800000c4 <trap_entry>
    80002990:	010787b3          	add	x15,x15,x16
    80002994:	10579073          	csrrw	x0,stvec,x15
    80002998:	340027f3          	csrrs	x15,mscratch,x0
    8000299c:	010787b3          	add	x15,x15,x16
    800029a0:	14079073          	csrrw	x0,sscratch,x15
    800029a4:	0000b7b7          	lui	x15,0xb
    800029a8:	1007879b          	addiw	x15,x15,256
    800029ac:	30279073          	csrrw	x0,medeleg,x15
    800029b0:	0001e7b7          	lui	x15,0x1e
    800029b4:	30079073          	csrrw	x0,mstatus,x15
    800029b8:	30405073          	csrrwi	x0,mie,0
    800029bc:	00005697          	auipc	x13,0x5
    800029c0:	64468693          	addi	x13,x13,1604 # 80008000 <freelist_nodes>
    800029c4:	010687b3          	add	x15,x13,x16
    800029c8:	3e078713          	addi	x14,x15,992 # 1e3e0 <_start-0x7ffe1c20>
    800029cc:	00006617          	auipc	x12,0x6
    800029d0:	e0f63e23          	sd	x15,-484(x12) # 800087e8 <freelist_head>
    800029d4:	00006797          	auipc	x15,0x6
    800029d8:	e0e7b623          	sd	x14,-500(x15) # 800087e0 <freelist_tail>
    800029dc:	00006317          	auipc	x6,0x6
    800029e0:	a1430313          	addi	x6,x6,-1516 # 800083f0 <user_mapping>
    800029e4:	00c00793          	addi	x15,x0,12
    800029e8:	000808b7          	lui	x17,0x80
    800029ec:	01080813          	addi	x16,x16,16
    800029f0:	03f7871b          	addiw	x14,x15,63
    800029f4:	02071713          	slli	x14,x14,0x20
    800029f8:	0017d61b          	srliw	x12,x15,0x1
    800029fc:	02075713          	srli	x14,x14,0x20
    80002a00:	00c7c7b3          	xor	x15,x15,x12
    80002a04:	01170733          	add	x14,x14,x17
    80002a08:	010685b3          	add	x11,x13,x16
    80002a0c:	00c71713          	slli	x14,x14,0xc
    80002a10:	0057979b          	slliw	x15,x15,0x5
    80002a14:	00e6b023          	sd	x14,0(x13)
    80002a18:	00b6b423          	sd	x11,8(x13)
    80002a1c:	0207f793          	andi	x15,x15,32
    80002a20:	01068693          	addi	x13,x13,16
    80002a24:	00c7e7b3          	or	x15,x15,x12
    80002a28:	fcd314e3          	bne	x6,x13,800029f0 <vm_boot+0x11c>
    80002a2c:	00050413          	addi	x8,x10,0
    80002a30:	12000613          	addi	x12,x0,288
    80002a34:	00000593          	addi	x11,x0,0
    80002a38:	00010513          	addi	x10,x2,0
    80002a3c:	00006797          	auipc	x15,0x6
    80002a40:	9a07b623          	sd	x0,-1620(x15) # 800083e8 <freelist_nodes+0x3e8>
    80002a44:	e18ff0ef          	jal	x1,8000205c <memset>
    80002a48:	800007b7          	lui	x15,0x80000
    80002a4c:	00f40433          	add	x8,x8,x15
    80002a50:	00010513          	addi	x10,x2,0
    80002a54:	10813423          	sd	x8,264(x2)
    80002a58:	de4fd0ef          	jal	x1,8000003c <pop_tf>
    80002a5c:	12813083          	ld	x1,296(x2)
    80002a60:	12013403          	ld	x8,288(x2)
    80002a64:	13010113          	addi	x2,x2,304
    80002a68:	00008067          	jalr	x0,0(x1)
    80002a6c:	069e57b7          	lui	x15,0x69e5
    80002a70:	000805b7          	lui	x11,0x80
    80002a74:	8d578793          	addi	x15,x15,-1835 # 69e48d5 <_start-0x7961b72b>
    80002a78:	ffc58593          	addi	x11,x11,-4 # 7fffc <_start-0x7ff80004>
    80002a7c:	00100613          	addi	x12,x0,1
    80002a80:	00b7f733          	and	x14,x15,x11
    80002a84:	01f61613          	slli	x12,x12,0x1f
    80002a88:	0017f693          	andi	x13,x15,1
    80002a8c:	02079793          	slli	x15,x15,0x20
    80002a90:	0207d793          	srli	x15,x15,0x20
    80002a94:	00c70733          	add	x14,x14,x12
    80002a98:	02068263          	beq	x13,x0,80002abc <vm_boot+0x1e8>
    80002a9c:	0007202f          	amoadd.w	x0,x0,(x14)
    80002aa0:	0017d793          	srli	x15,x15,0x1
    80002aa4:	00b7f733          	and	x14,x15,x11
    80002aa8:	0017f693          	andi	x13,x15,1
    80002aac:	02079793          	slli	x15,x15,0x20
    80002ab0:	0207d793          	srli	x15,x15,0x20
    80002ab4:	00c70733          	add	x14,x14,x12
    80002ab8:	fe0692e3          	bne	x13,x0,80002a9c <vm_boot+0x1c8>
    80002abc:	00072003          	lw	x0,0(x14)
    80002ac0:	0017d793          	srli	x15,x15,0x1
    80002ac4:	fe1ff06f          	jal	x0,80002aa4 <vm_boot+0x1d0>

0000000080002ac8 <userstart>:
    80002ac8:	00000093          	addi	x1,x0,0
    80002acc:	00000113          	addi	x2,x0,0
    80002ad0:	0020bf33          	sltu	x30,x1,x2
    80002ad4:	00000e93          	addi	x29,x0,0
    80002ad8:	00200193          	addi	x3,x0,2
    80002adc:	4fdf1c63          	bne	x30,x29,80002fd4 <fail>

0000000080002ae0 <test_3>:
    80002ae0:	00100093          	addi	x1,x0,1
    80002ae4:	00100113          	addi	x2,x0,1
    80002ae8:	0020bf33          	sltu	x30,x1,x2
    80002aec:	00000e93          	addi	x29,x0,0
    80002af0:	00300193          	addi	x3,x0,3
    80002af4:	4fdf1063          	bne	x30,x29,80002fd4 <fail>

0000000080002af8 <test_4>:
    80002af8:	00300093          	addi	x1,x0,3
    80002afc:	00700113          	addi	x2,x0,7
    80002b00:	0020bf33          	sltu	x30,x1,x2
    80002b04:	00100e93          	addi	x29,x0,1
    80002b08:	00400193          	addi	x3,x0,4
    80002b0c:	4ddf1463          	bne	x30,x29,80002fd4 <fail>

0000000080002b10 <test_5>:
    80002b10:	00700093          	addi	x1,x0,7
    80002b14:	00300113          	addi	x2,x0,3
    80002b18:	0020bf33          	sltu	x30,x1,x2
    80002b1c:	00000e93          	addi	x29,x0,0
    80002b20:	00500193          	addi	x3,x0,5
    80002b24:	4bdf1863          	bne	x30,x29,80002fd4 <fail>

0000000080002b28 <test_6>:
    80002b28:	00000093          	addi	x1,x0,0
    80002b2c:	00020137          	lui	x2,0x20
    80002b30:	fff1011b          	addiw	x2,x2,-1
    80002b34:	00f11113          	slli	x2,x2,0xf
    80002b38:	0020bf33          	sltu	x30,x1,x2
    80002b3c:	00100e93          	addi	x29,x0,1
    80002b40:	00600193          	addi	x3,x0,6
    80002b44:	49df1863          	bne	x30,x29,80002fd4 <fail>

0000000080002b48 <test_7>:
    80002b48:	0010009b          	addiw	x1,x0,1
    80002b4c:	01f09093          	slli	x1,x1,0x1f
    80002b50:	00000113          	addi	x2,x0,0
    80002b54:	0020bf33          	sltu	x30,x1,x2
    80002b58:	00000e93          	addi	x29,x0,0
    80002b5c:	00700193          	addi	x3,x0,7
    80002b60:	47df1a63          	bne	x30,x29,80002fd4 <fail>

0000000080002b64 <test_8>:
    80002b64:	0010009b          	addiw	x1,x0,1
    80002b68:	01f09093          	slli	x1,x1,0x1f
    80002b6c:	00020137          	lui	x2,0x20
    80002b70:	fff1011b          	addiw	x2,x2,-1
    80002b74:	00f11113          	slli	x2,x2,0xf
    80002b78:	0020bf33          	sltu	x30,x1,x2
    80002b7c:	00100e93          	addi	x29,x0,1
    80002b80:	00800193          	addi	x3,x0,8
    80002b84:	45df1863          	bne	x30,x29,80002fd4 <fail>

0000000080002b88 <test_9>:
    80002b88:	00000093          	addi	x1,x0,0
    80002b8c:	00008137          	lui	x2,0x8
    80002b90:	fff1011b          	addiw	x2,x2,-1
    80002b94:	0020bf33          	sltu	x30,x1,x2
    80002b98:	00100e93          	addi	x29,x0,1
    80002b9c:	00900193          	addi	x3,x0,9
    80002ba0:	43df1a63          	bne	x30,x29,80002fd4 <fail>

0000000080002ba4 <test_10>:
    80002ba4:	800000b7          	lui	x1,0x80000
    80002ba8:	fff0809b          	addiw	x1,x1,-1
    80002bac:	00000113          	addi	x2,x0,0
    80002bb0:	0020bf33          	sltu	x30,x1,x2
    80002bb4:	00000e93          	addi	x29,x0,0
    80002bb8:	00a00193          	addi	x3,x0,10
    80002bbc:	41df1c63          	bne	x30,x29,80002fd4 <fail>

0000000080002bc0 <test_11>:
    80002bc0:	800000b7          	lui	x1,0x80000
    80002bc4:	fff0809b          	addiw	x1,x1,-1
    80002bc8:	00008137          	lui	x2,0x8
    80002bcc:	fff1011b          	addiw	x2,x2,-1
    80002bd0:	0020bf33          	sltu	x30,x1,x2
    80002bd4:	00000e93          	addi	x29,x0,0
    80002bd8:	00b00193          	addi	x3,x0,11
    80002bdc:	3fdf1c63          	bne	x30,x29,80002fd4 <fail>

0000000080002be0 <test_12>:
    80002be0:	0010009b          	addiw	x1,x0,1
    80002be4:	01f09093          	slli	x1,x1,0x1f
    80002be8:	00008137          	lui	x2,0x8
    80002bec:	fff1011b          	addiw	x2,x2,-1
    80002bf0:	0020bf33          	sltu	x30,x1,x2
    80002bf4:	00000e93          	addi	x29,x0,0
    80002bf8:	00c00193          	addi	x3,x0,12
    80002bfc:	3ddf1c63          	bne	x30,x29,80002fd4 <fail>

0000000080002c00 <test_13>:
    80002c00:	800000b7          	lui	x1,0x80000
    80002c04:	fff0809b          	addiw	x1,x1,-1
    80002c08:	00020137          	lui	x2,0x20
    80002c0c:	fff1011b          	addiw	x2,x2,-1
    80002c10:	00f11113          	slli	x2,x2,0xf
    80002c14:	0020bf33          	sltu	x30,x1,x2
    80002c18:	00100e93          	addi	x29,x0,1
    80002c1c:	00d00193          	addi	x3,x0,13
    80002c20:	3bdf1a63          	bne	x30,x29,80002fd4 <fail>

0000000080002c24 <test_14>:
    80002c24:	00000093          	addi	x1,x0,0
    80002c28:	0010011b          	addiw	x2,x0,1
    80002c2c:	02011113          	slli	x2,x2,0x20
    80002c30:	fff10113          	addi	x2,x2,-1 # 1ffff <_start-0x7ffe0001>
    80002c34:	0020bf33          	sltu	x30,x1,x2
    80002c38:	00100e93          	addi	x29,x0,1
    80002c3c:	00e00193          	addi	x3,x0,14
    80002c40:	39df1a63          	bne	x30,x29,80002fd4 <fail>

0000000080002c44 <test_15>:
    80002c44:	0010009b          	addiw	x1,x0,1
    80002c48:	02009093          	slli	x1,x1,0x20
    80002c4c:	fff08093          	addi	x1,x1,-1 # ffffffff7fffffff <_end+0xfffffffeffff780f>
    80002c50:	00100113          	addi	x2,x0,1
    80002c54:	0020bf33          	sltu	x30,x1,x2
    80002c58:	00000e93          	addi	x29,x0,0
    80002c5c:	00f00193          	addi	x3,x0,15
    80002c60:	37df1a63          	bne	x30,x29,80002fd4 <fail>

0000000080002c64 <test_16>:
    80002c64:	0010009b          	addiw	x1,x0,1
    80002c68:	02009093          	slli	x1,x1,0x20
    80002c6c:	fff08093          	addi	x1,x1,-1
    80002c70:	0010011b          	addiw	x2,x0,1
    80002c74:	02011113          	slli	x2,x2,0x20
    80002c78:	fff10113          	addi	x2,x2,-1
    80002c7c:	0020bf33          	sltu	x30,x1,x2
    80002c80:	00000e93          	addi	x29,x0,0
    80002c84:	01000193          	addi	x3,x0,16
    80002c88:	35df1663          	bne	x30,x29,80002fd4 <fail>

0000000080002c8c <test_17>:
    80002c8c:	00e00093          	addi	x1,x0,14
    80002c90:	00d00113          	addi	x2,x0,13
    80002c94:	0020b0b3          	sltu	x1,x1,x2
    80002c98:	00000e93          	addi	x29,x0,0
    80002c9c:	01100193          	addi	x3,x0,17
    80002ca0:	33d09a63          	bne	x1,x29,80002fd4 <fail>

0000000080002ca4 <test_18>:
    80002ca4:	00b00093          	addi	x1,x0,11
    80002ca8:	00d00113          	addi	x2,x0,13
    80002cac:	0020b133          	sltu	x2,x1,x2
    80002cb0:	00100e93          	addi	x29,x0,1
    80002cb4:	01200193          	addi	x3,x0,18
    80002cb8:	31d11e63          	bne	x2,x29,80002fd4 <fail>

0000000080002cbc <test_19>:
    80002cbc:	00d00093          	addi	x1,x0,13
    80002cc0:	0010b0b3          	sltu	x1,x1,x1
    80002cc4:	00000e93          	addi	x29,x0,0
    80002cc8:	01300193          	addi	x3,x0,19
    80002ccc:	31d09463          	bne	x1,x29,80002fd4 <fail>

0000000080002cd0 <test_20>:
    80002cd0:	00000213          	addi	x4,x0,0
    80002cd4:	00b00093          	addi	x1,x0,11
    80002cd8:	00d00113          	addi	x2,x0,13
    80002cdc:	0020bf33          	sltu	x30,x1,x2
    80002ce0:	000f0313          	addi	x6,x30,0
    80002ce4:	00120213          	addi	x4,x4,1 # 1 <_start-0x7fffffff>
    80002ce8:	00200293          	addi	x5,x0,2
    80002cec:	fe5214e3          	bne	x4,x5,80002cd4 <test_20+0x4>
    80002cf0:	00100e93          	addi	x29,x0,1
    80002cf4:	01400193          	addi	x3,x0,20
    80002cf8:	2dd31e63          	bne	x6,x29,80002fd4 <fail>

0000000080002cfc <test_21>:
    80002cfc:	00000213          	addi	x4,x0,0
    80002d00:	00e00093          	addi	x1,x0,14
    80002d04:	00d00113          	addi	x2,x0,13
    80002d08:	0020bf33          	sltu	x30,x1,x2
    80002d0c:	00000013          	addi	x0,x0,0
    80002d10:	000f0313          	addi	x6,x30,0
    80002d14:	00120213          	addi	x4,x4,1 # 1 <_start-0x7fffffff>
    80002d18:	00200293          	addi	x5,x0,2
    80002d1c:	fe5212e3          	bne	x4,x5,80002d00 <test_21+0x4>
    80002d20:	00000e93          	addi	x29,x0,0
    80002d24:	01500193          	addi	x3,x0,21
    80002d28:	2bd31663          	bne	x6,x29,80002fd4 <fail>

0000000080002d2c <test_22>:
    80002d2c:	00000213          	addi	x4,x0,0
    80002d30:	00c00093          	addi	x1,x0,12
    80002d34:	00d00113          	addi	x2,x0,13
    80002d38:	0020bf33          	sltu	x30,x1,x2
    80002d3c:	00000013          	addi	x0,x0,0
    80002d40:	00000013          	addi	x0,x0,0
    80002d44:	000f0313          	addi	x6,x30,0
    80002d48:	00120213          	addi	x4,x4,1 # 1 <_start-0x7fffffff>
    80002d4c:	00200293          	addi	x5,x0,2
    80002d50:	fe5210e3          	bne	x4,x5,80002d30 <test_22+0x4>
    80002d54:	00100e93          	addi	x29,x0,1
    80002d58:	01600193          	addi	x3,x0,22
    80002d5c:	27d31c63          	bne	x6,x29,80002fd4 <fail>

0000000080002d60 <test_23>:
    80002d60:	00000213          	addi	x4,x0,0
    80002d64:	00e00093          	addi	x1,x0,14
    80002d68:	00d00113          	addi	x2,x0,13
    80002d6c:	0020bf33          	sltu	x30,x1,x2
    80002d70:	00120213          	addi	x4,x4,1 # 1 <_start-0x7fffffff>
    80002d74:	00200293          	addi	x5,x0,2
    80002d78:	fe5216e3          	bne	x4,x5,80002d64 <test_23+0x4>
    80002d7c:	00000e93          	addi	x29,x0,0
    80002d80:	01700193          	addi	x3,x0,23
    80002d84:	25df1863          	bne	x30,x29,80002fd4 <fail>

0000000080002d88 <test_24>:
    80002d88:	00000213          	addi	x4,x0,0
    80002d8c:	00b00093          	addi	x1,x0,11
    80002d90:	00d00113          	addi	x2,x0,13
    80002d94:	00000013          	addi	x0,x0,0
    80002d98:	0020bf33          	sltu	x30,x1,x2
    80002d9c:	00120213          	addi	x4,x4,1 # 1 <_start-0x7fffffff>
    80002da0:	00200293          	addi	x5,x0,2
    80002da4:	fe5214e3          	bne	x4,x5,80002d8c <test_24+0x4>
    80002da8:	00100e93          	addi	x29,x0,1
    80002dac:	01800193          	addi	x3,x0,24
    80002db0:	23df1263          	bne	x30,x29,80002fd4 <fail>

0000000080002db4 <test_25>:
    80002db4:	00000213          	addi	x4,x0,0
    80002db8:	00f00093          	addi	x1,x0,15
    80002dbc:	00d00113          	addi	x2,x0,13
    80002dc0:	00000013          	addi	x0,x0,0
    80002dc4:	00000013          	addi	x0,x0,0
    80002dc8:	0020bf33          	sltu	x30,x1,x2
    80002dcc:	00120213          	addi	x4,x4,1 # 1 <_start-0x7fffffff>
    80002dd0:	00200293          	addi	x5,x0,2
    80002dd4:	fe5212e3          	bne	x4,x5,80002db8 <test_25+0x4>
    80002dd8:	00000e93          	addi	x29,x0,0
    80002ddc:	01900193          	addi	x3,x0,25
    80002de0:	1fdf1a63          	bne	x30,x29,80002fd4 <fail>

0000000080002de4 <test_26>:
    80002de4:	00000213          	addi	x4,x0,0
    80002de8:	00a00093          	addi	x1,x0,10
    80002dec:	00000013          	addi	x0,x0,0
    80002df0:	00d00113          	addi	x2,x0,13
    80002df4:	0020bf33          	sltu	x30,x1,x2
    80002df8:	00120213          	addi	x4,x4,1 # 1 <_start-0x7fffffff>
    80002dfc:	00200293          	addi	x5,x0,2
    80002e00:	fe5214e3          	bne	x4,x5,80002de8 <test_26+0x4>
    80002e04:	00100e93          	addi	x29,x0,1
    80002e08:	01a00193          	addi	x3,x0,26
    80002e0c:	1ddf1463          	bne	x30,x29,80002fd4 <fail>

0000000080002e10 <test_27>:
    80002e10:	00000213          	addi	x4,x0,0
    80002e14:	01000093          	addi	x1,x0,16
    80002e18:	00000013          	addi	x0,x0,0
    80002e1c:	00d00113          	addi	x2,x0,13
    80002e20:	00000013          	addi	x0,x0,0
    80002e24:	0020bf33          	sltu	x30,x1,x2
    80002e28:	00120213          	addi	x4,x4,1 # 1 <_start-0x7fffffff>
    80002e2c:	00200293          	addi	x5,x0,2
    80002e30:	fe5212e3          	bne	x4,x5,80002e14 <test_27+0x4>
    80002e34:	00000e93          	addi	x29,x0,0
    80002e38:	01b00193          	addi	x3,x0,27
    80002e3c:	19df1c63          	bne	x30,x29,80002fd4 <fail>

0000000080002e40 <test_28>:
    80002e40:	00000213          	addi	x4,x0,0
    80002e44:	00900093          	addi	x1,x0,9
    80002e48:	00000013          	addi	x0,x0,0
    80002e4c:	00000013          	addi	x0,x0,0
    80002e50:	00d00113          	addi	x2,x0,13
    80002e54:	0020bf33          	sltu	x30,x1,x2
    80002e58:	00120213          	addi	x4,x4,1 # 1 <_start-0x7fffffff>
    80002e5c:	00200293          	addi	x5,x0,2
    80002e60:	fe5212e3          	bne	x4,x5,80002e44 <test_28+0x4>
    80002e64:	00100e93          	addi	x29,x0,1
    80002e68:	01c00193          	addi	x3,x0,28
    80002e6c:	17df1463          	bne	x30,x29,80002fd4 <fail>

0000000080002e70 <test_29>:
    80002e70:	00000213          	addi	x4,x0,0
    80002e74:	00d00113          	addi	x2,x0,13
    80002e78:	01100093          	addi	x1,x0,17
    80002e7c:	0020bf33          	sltu	x30,x1,x2
    80002e80:	00120213          	addi	x4,x4,1 # 1 <_start-0x7fffffff>
    80002e84:	00200293          	addi	x5,x0,2
    80002e88:	fe5216e3          	bne	x4,x5,80002e74 <test_29+0x4>
    80002e8c:	00000e93          	addi	x29,x0,0
    80002e90:	01d00193          	addi	x3,x0,29
    80002e94:	15df1063          	bne	x30,x29,80002fd4 <fail>

0000000080002e98 <test_30>:
    80002e98:	00000213          	addi	x4,x0,0
    80002e9c:	00d00113          	addi	x2,x0,13
    80002ea0:	00800093          	addi	x1,x0,8
    80002ea4:	00000013          	addi	x0,x0,0
    80002ea8:	0020bf33          	sltu	x30,x1,x2
    80002eac:	00120213          	addi	x4,x4,1 # 1 <_start-0x7fffffff>
    80002eb0:	00200293          	addi	x5,x0,2
    80002eb4:	fe5214e3          	bne	x4,x5,80002e9c <test_30+0x4>
    80002eb8:	00100e93          	addi	x29,x0,1
    80002ebc:	01e00193          	addi	x3,x0,30
    80002ec0:	11df1a63          	bne	x30,x29,80002fd4 <fail>

0000000080002ec4 <test_31>:
    80002ec4:	00000213          	addi	x4,x0,0
    80002ec8:	00d00113          	addi	x2,x0,13
    80002ecc:	01200093          	addi	x1,x0,18
    80002ed0:	00000013          	addi	x0,x0,0
    80002ed4:	00000013          	addi	x0,x0,0
    80002ed8:	0020bf33          	sltu	x30,x1,x2
    80002edc:	00120213          	addi	x4,x4,1 # 1 <_start-0x7fffffff>
    80002ee0:	00200293          	addi	x5,x0,2
    80002ee4:	fe5212e3          	bne	x4,x5,80002ec8 <test_31+0x4>
    80002ee8:	00000e93          	addi	x29,x0,0
    80002eec:	01f00193          	addi	x3,x0,31
    80002ef0:	0fdf1263          	bne	x30,x29,80002fd4 <fail>

0000000080002ef4 <test_32>:
    80002ef4:	00000213          	addi	x4,x0,0
    80002ef8:	00d00113          	addi	x2,x0,13
    80002efc:	00000013          	addi	x0,x0,0
    80002f00:	00700093          	addi	x1,x0,7
    80002f04:	0020bf33          	sltu	x30,x1,x2
    80002f08:	00120213          	addi	x4,x4,1 # 1 <_start-0x7fffffff>
    80002f0c:	00200293          	addi	x5,x0,2
    80002f10:	fe5214e3          	bne	x4,x5,80002ef8 <test_32+0x4>
    80002f14:	00100e93          	addi	x29,x0,1
    80002f18:	02000193          	addi	x3,x0,32
    80002f1c:	0bdf1c63          	bne	x30,x29,80002fd4 <fail>

0000000080002f20 <test_33>:
    80002f20:	00000213          	addi	x4,x0,0
    80002f24:	00d00113          	addi	x2,x0,13
    80002f28:	00000013          	addi	x0,x0,0
    80002f2c:	01300093          	addi	x1,x0,19
    80002f30:	00000013          	addi	x0,x0,0
    80002f34:	0020bf33          	sltu	x30,x1,x2
    80002f38:	00120213          	addi	x4,x4,1 # 1 <_start-0x7fffffff>
    80002f3c:	00200293          	addi	x5,x0,2
    80002f40:	fe5212e3          	bne	x4,x5,80002f24 <test_33+0x4>
    80002f44:	00000e93          	addi	x29,x0,0
    80002f48:	02100193          	addi	x3,x0,33
    80002f4c:	09df1463          	bne	x30,x29,80002fd4 <fail>

0000000080002f50 <test_34>:
    80002f50:	00000213          	addi	x4,x0,0
    80002f54:	00d00113          	addi	x2,x0,13
    80002f58:	00000013          	addi	x0,x0,0
    80002f5c:	00000013          	addi	x0,x0,0
    80002f60:	00600093          	addi	x1,x0,6
    80002f64:	0020bf33          	sltu	x30,x1,x2
    80002f68:	00120213          	addi	x4,x4,1 # 1 <_start-0x7fffffff>
    80002f6c:	00200293          	addi	x5,x0,2
    80002f70:	fe5212e3          	bne	x4,x5,80002f54 <test_34+0x4>
    80002f74:	00100e93          	addi	x29,x0,1
    80002f78:	02200193          	addi	x3,x0,34
    80002f7c:	05df1c63          	bne	x30,x29,80002fd4 <fail>

0000000080002f80 <test_35>:
    80002f80:	fff00093          	addi	x1,x0,-1
    80002f84:	00103133          	sltu	x2,x0,x1
    80002f88:	00100e93          	addi	x29,x0,1
    80002f8c:	02300193          	addi	x3,x0,35
    80002f90:	05d11263          	bne	x2,x29,80002fd4 <fail>

0000000080002f94 <test_36>:
    80002f94:	fff00093          	addi	x1,x0,-1
    80002f98:	0000b133          	sltu	x2,x1,x0
    80002f9c:	00000e93          	addi	x29,x0,0
    80002fa0:	02400193          	addi	x3,x0,36
    80002fa4:	03d11863          	bne	x2,x29,80002fd4 <fail>

0000000080002fa8 <test_37>:
    80002fa8:	000030b3          	sltu	x1,x0,x0
    80002fac:	00000e93          	addi	x29,x0,0
    80002fb0:	02500193          	addi	x3,x0,37
    80002fb4:	03d09063          	bne	x1,x29,80002fd4 <fail>

0000000080002fb8 <test_38>:
    80002fb8:	01000093          	addi	x1,x0,16
    80002fbc:	01e00113          	addi	x2,x0,30
    80002fc0:	0020b033          	sltu	x0,x1,x2
    80002fc4:	00000e93          	addi	x29,x0,0
    80002fc8:	02600193          	addi	x3,x0,38
    80002fcc:	01d01463          	bne	x0,x29,80002fd4 <fail>
    80002fd0:	00301a63          	bne	x0,x3,80002fe4 <pass>

0000000080002fd4 <fail>:
    80002fd4:	00119513          	slli	x10,x3,0x1
    80002fd8:	00050063          	beq	x10,x0,80002fd8 <fail+0x4>
    80002fdc:	00156513          	ori	x10,x10,1
    80002fe0:	00000073          	ecall

0000000080002fe4 <pass>:
    80002fe4:	00100513          	addi	x10,x0,1
    80002fe8:	00000073          	ecall
    80002fec:	c0001073          	unimp
